LX51 LINKER/LOCATER V4.66.87.0                                                          12/09/2024  11:33:43  PAGE 1


LX51 LINKER/LOCATER V4.66.87.0, INVOKED BY:
F:\MDK5.36\C51\BIN\LX51.EXE .\Objects\STARTUP.obj, .\Objects\main.obj, .\Objects\BTM.obj, .\Objects\EX_Init.obj, .\Objec
>> ts\IAP_Init.obj, .\Objects\IO_Init.obj, .\Objects\LCD_Init.obj, .\Objects\Multiplication_Division.obj, .\Objects\PWM_
>> Init.obj, .\Objects\SSI_Init.obj, .\Objects\Timer_Init.obj, .\Objects\Uart_Init.obj, .\Objects\ADC_Init.obj, .\Object
>> s\TKDriver.obj, .\User\SC92F8X1X_HighSensitive_lib_T1_L_V2.2.0.LIB, .\Objects\RingBuffer_C51.obj, .\Objects\project.o
>> bj, .\Objects\Radar.obj TO .\Objects\Demo PRINT (.\Listings\Demo.map) DISABLEWARNING (16) REMOVEUNUSED


CPU MODE:     8051 MODE
MEMORY MODEL: LARGE


INPUT MODULES INCLUDED:
  .\Objects\STARTUP.obj (?C_STARTUP)
         COMMENT TYPE 1: A51 / ASM51 Assembler
  .\Objects\main.obj (MAIN)
         COMMENT TYPE 0: C51 V9.57.0.0
  .\Objects\BTM.obj (BTM)
         COMMENT TYPE 0: C51 V9.57.0.0
  .\Objects\EX_Init.obj (EX_INIT)
         COMMENT TYPE 0: C51 V9.57.0.0
  .\Objects\IAP_Init.obj (IAP_INIT)
         COMMENT TYPE 0: C51 V9.57.0.0
  .\Objects\IO_Init.obj (IO_INIT)
         COMMENT TYPE 0: C51 V9.57.0.0
  .\Objects\LCD_Init.obj (LCD_INIT)
         COMMENT TYPE 0: C51 V9.57.0.0
  .\Objects\Multiplication_Division.obj (MULTIPLICATION_DIVISION)
         COMMENT TYPE 0: C51 V9.57.0.0
  .\Objects\PWM_Init.obj (PWM_INIT)
         COMMENT TYPE 0: C51 V9.57.0.0
  .\Objects\SSI_Init.obj (SSI_INIT)
         COMMENT TYPE 0: C51 V9.57.0.0
  .\Objects\Timer_Init.obj (TIMER_INIT)
         COMMENT TYPE 0: C51 V9.57.0.0
  .\Objects\Uart_Init.obj (UART_INIT)
         COMMENT TYPE 0: C51 V9.57.0.0
  .\Objects\ADC_Init.obj (ADC_INIT)
         COMMENT TYPE 0: C51 V9.57.0.0
  .\Objects\TKDriver.obj (TKDRIVER)
         COMMENT TYPE 0: C51 V9.57.0.0
  .\User\SC92F8X1X_HighSensitive_lib_T1_L_V2.2.0.LIB (SENSORMETHOD)
         COMMENT TYPE 0: C51 V9.60.0.0
  .\Objects\RingBuffer_C51.obj (RINGBUFFER_C51)
         COMMENT TYPE 0: C51 V9.57.0.0
  .\Objects\project.obj (PROJECT)
         COMMENT TYPE 0: C51 V9.57.0.0
  .\Objects\Radar.obj (RADAR)
         COMMENT TYPE 0: C51 V9.57.0.0
  F:\MDK5.36\C51\LIB\C51L.LIB (?C_INIT)
         COMMENT TYPE 1: A51 / ASM51 Assembler
  F:\MDK5.36\C51\LIB\C51L.LIB (?C?CLDOPTR)
         COMMENT TYPE 1: A51 / ASM51 Assembler
  F:\MDK5.36\C51\LIB\C51L.LIB (?C?CSTPTR)
         COMMENT TYPE 1: A51 / ASM51 Assembler
  F:\MDK5.36\C51\LIB\C51L.LIB (?C?CSTOPTR)
         COMMENT TYPE 1: A51 / ASM51 Assembler
  F:\MDK5.36\C51\LIB\C51L.LIB (?C?IMUL)
         COMMENT TYPE 1: A51 / ASM51 Assembler
  F:\MDK5.36\C51\LIB\C51L.LIB (?C?UIDIV)
         COMMENT TYPE 1: A51 / ASM51 Assembler
  F:\MDK5.36\C51\LIB\C51L.LIB (?C?SIDIV)
         COMMENT TYPE 1: A51 / ASM51 Assembler
  F:\MDK5.36\C51\LIB\C51L.LIB (?C?IILDX)
         COMMENT TYPE 1: A51 / ASM51 Assembler
  F:\MDK5.36\C51\LIB\C51L.LIB (?C?ILDIX)
LX51 LINKER/LOCATER V4.66.87.0                                                        12/09/2024  11:33:43  PAGE 2


         COMMENT TYPE 1: A51 / ASM51 Assembler
  F:\MDK5.36\C51\LIB\C51L.LIB (?C?ILDPTR)
         COMMENT TYPE 1: A51 / ASM51 Assembler
  F:\MDK5.36\C51\LIB\C51L.LIB (?C?ILDOPTR)
         COMMENT TYPE 1: A51 / ASM51 Assembler
  F:\MDK5.36\C51\LIB\C51L.LIB (?C?IILDOPTR)
         COMMENT TYPE 1: A51 / ASM51 Assembler
  F:\MDK5.36\C51\LIB\C51L.LIB (?C?ISTPTR)
         COMMENT TYPE 1: A51 / ASM51 Assembler
  F:\MDK5.36\C51\LIB\C51L.LIB (?C?ISTOPTR)
         COMMENT TYPE 1: A51 / ASM51 Assembler
  F:\MDK5.36\C51\LIB\C51L.LIB (?C?LMUL)
         COMMENT TYPE 1: A51 / ASM51 Assembler
  F:\MDK5.36\C51\LIB\C51L.LIB (?C?ULDIV)
         COMMENT TYPE 1: A51 / ASM51 Assembler
  F:\MDK5.36\C51\LIB\C51L.LIB (?C?LNOT)
         COMMENT TYPE 1: A51 / ASM51 Assembler
  F:\MDK5.36\C51\LIB\C51L.LIB (?C?ULCMP)
         COMMENT TYPE 1: A51 / ASM51 Assembler
  F:\MDK5.36\C51\LIB\C51L.LIB (?C?ULSHR)
         COMMENT TYPE 1: A51 / ASM51 Assembler
  F:\MDK5.36\C51\LIB\C51L.LIB (?C?LSHL)
         COMMENT TYPE 1: A51 / ASM51 Assembler
  F:\MDK5.36\C51\LIB\C51L.LIB (?C?LSTXDATA)
         COMMENT TYPE 1: A51 / ASM51 Assembler
  F:\MDK5.36\C51\LIB\C51L.LIB (?C?LSTKXDATA)
         COMMENT TYPE 1: A51 / ASM51 Assembler
  F:\MDK5.36\C51\LIB\C51L.LIB (?C?OFFXADD)
         COMMENT TYPE 1: A51 / ASM51 Assembler
  F:\MDK5.36\C51\LIB\C51L.LIB (?C?PLDOPTR)
         COMMENT TYPE 1: A51 / ASM51 Assembler
  F:\MDK5.36\C51\LIB\C51L.LIB (?C?PSTOPTR)
         COMMENT TYPE 1: A51 / ASM51 Assembler
  F:\MDK5.36\C51\LIB\C51L.LIB (?C?CCASE)
         COMMENT TYPE 1: A51 / ASM51 Assembler
  F:\MDK5.36\C51\LIB\C51L.LIB (FREE)
         COMMENT TYPE 1: C51 Compiler
  F:\MDK5.36\C51\LIB\C51L.LIB (?C?PLDIDATA)
         COMMENT TYPE 1: A51 / ASM51 Assembler
  F:\MDK5.36\C51\LIB\C51L.LIB (?C?PSTIDATA)
         COMMENT TYPE 1: A51 / ASM51 Assembler
  F:\MDK5.36\C51\LIB\C51L.LIB (?C?PLDXDATA)
         COMMENT TYPE 1: A51 / ASM51 Assembler
  F:\MDK5.36\C51\LIB\C51L.LIB (?C?PSTXDATA)
         COMMENT TYPE 1: A51 / ASM51 Assembler
  F:\MDK5.36\C51\LIB\C51L.LIB (?C?PLDPDATA)
         COMMENT TYPE 1: A51 / ASM51 Assembler
  F:\MDK5.36\C51\LIB\C51L.LIB (?C?PSTPDATA)
         COMMENT TYPE 1: A51 / ASM51 Assembler
  F:\MDK5.36\C51\LIB\C51L.LIB (?C?PLDCODE)
         COMMENT TYPE 1: A51 / ASM51 Assembler
  F:\MDK5.36\C51\LIB\C51L.LIB (INIT_MEM)
         COMMENT TYPE 1: C51 Compiler


ACTIVE MEMORY CLASSES OF MODULE:  .\Objects\Demo (?C_STARTUP)

BASE        START       END         USED      MEMORY CLASS
==========================================================
C:000000H   C:000000H   C:00FFFFH   00202DH   CODE
I:000000H   I:000000H   I:0000FFH   000001H   IDATA
X:000000H   X:000000H   X:00FFFFH   000108H   XDATA
I:000020H.0 I:000020H.0 I:00002FH.7 000001H.2 BIT
I:000000H   I:000000H   I:00007FH   000022H   DATA
C:000000H   C:000000H   C:00FFFFH   00002DH   CONST
LX51 LINKER/LOCATER V4.66.87.0                                                        12/09/2024  11:33:43  PAGE 3




MEMORY MAP OF MODULE:  .\Objects\Demo (?C_STARTUP)


START     STOP      LENGTH    ALIGN  RELOC    MEMORY CLASS   SEGMENT NAME
=========================================================================

* * * * * * * * * * *   D A T A   M E M O R Y   * * * * * * * * * * * * *
000000H   000007H   000008H   ---    AT..     DATA           "REG BANK 0"
000008H   000018H   000011H   BYTE   UNIT     DATA           ?DT?TKDRIVER
000019H.0 00001FH.7 000007H.0 ---    ---      **GAP**
000020H.0 000020H.1 000000H.2 BIT    UNIT     BIT            ?BI?UART_INIT
000020H.2 000020H.3 000000H.2 BIT    UNIT     BIT            ?BI?SENSORMETHOD
000020H.4 000020H.5 000000H.2 BIT    UNIT     BIT            ?BI?PROJECT
000020H.6 000020H.6 000000H.1 BIT    UNIT     BIT            ?BI?SSI_INIT
000020H.7 000020H.7 000000H.1 BIT    UNIT     BIT            ?BI?TIMER_INIT
000021H.0 000021H.0 000000H.1 BIT    UNIT     BIT            ?BI?ADC_INIT
000021H.1 000021H.1 000000H.1 BIT    UNIT     BIT            _BIT_GROUP_
000021H.2 000021H   000000H.6 ---    ---      **GAP**
000022H   00002AH   000009H   BYTE   UNIT     DATA           ?DT?SENSORMETHOD
00002BH   00002BH   000001H   BYTE   UNIT     IDATA          ?STACK

* * * * * * * * * * *   C O D E   M E M O R Y   * * * * * * * * * * * * *
000000H   000002H   000003H   ---    OFFS..   CODE           ?CO??C_STARTUP?0
000003H   000005H   000003H   BYTE   OFFS..   CODE           ?EX_INIT?00003
000006H   000009H   000004H   BYTE   UNIT     CODE           ?PR?TIMER_TEST?TIMER_INIT
00000AH   00000AH   000001H   BYTE   UNIT     CODE           ?PR?PWMINT?PWM_INIT
00000BH   00000DH   000003H   BYTE   OFFS..   CODE           ?TIMER_INIT?0000B
00000EH   000010H   000003H   BYTE   UNIT     CODE           ?PR?EX0?EX_INIT
000011H   000012H   000002H   ---    ---      **GAP**
000013H   000015H   000003H   BYTE   OFFS..   CODE           ?EX_INIT?00013
000016H   000018H   000003H   BYTE   UNIT     CODE           ?PR?EX2?EX_INIT
000019H   00001AH   000002H   ---    ---      **GAP**
00001BH   00001DH   000003H   BYTE   OFFS..   CODE           ?TIMER_INIT?0001B
00001EH   000020H   000003H   BYTE   UNIT     CODE           ?PR?TIMER1?TIMER_INIT
000021H   000022H   000002H   ---    ---      **GAP**
000023H   000025H   000003H   BYTE   OFFS..   CODE           ?UART_INIT?00023
000026H   000028H   000003H   BYTE   UNIT     CODE           ?PR?GETCSFUNCTION?TKDRIVER
000029H   00002AH   000002H   ---    ---      **GAP**
00002BH   00002DH   000003H   BYTE   OFFS..   CODE           ?TIMER_INIT?0002B
00002EH   000030H   000003H   BYTE   UNIT     CODE           ?PR?TOUCHKEYRESTART?SENSORMETHOD
000031H   000032H   000002H   ---    ---      **GAP**
000033H   000035H   000003H   BYTE   OFFS..   CODE           ?ADC_INIT?00033
000036H   000038H   000003H   BYTE   UNIT     CODE           ?PR?GETISNEEDUPDATEBASELINE?SENSORMETHOD
000039H   00003AH   000002H   ---    ---      **GAP**
00003BH   00003DH   000003H   BYTE   OFFS..   CODE           ?SSI_INIT?0003B
00003EH   000040H   000003H   BYTE   UNIT     CODE           ?PR?SETNEEDUPDATEBASELINE?SENSORMETHOD
000041H   000042H   000002H   ---    ---      **GAP**
000043H   000045H   000003H   BYTE   OFFS..   CODE           ?PWM_INIT?00043
000046H   00004AH   000005H   ---    ---      **GAP**
00004BH   00004DH   000003H   BYTE   OFFS..   CODE           ?BTM?0004B
00004EH   000052H   000005H   ---    ---      **GAP**
000053H   000055H   000003H   BYTE   OFFS..   CODE           ?EX_INIT?00053
000056H   00005AH   000005H   ---    ---      **GAP**
00005BH   00005DH   000003H   BYTE   OFFS..   CODE           ?TKDRIVER?0005B
00005EH   00051EH   0004C1H   BYTE   UNIT     CODE           ?C?LIB_CODE
00051FH   00094AH   00042CH   BYTE   UNIT     CODE           ?PR?_SENSORRENOVATE?SENSORMETHOD
00094BH   000AF4H   0001AAH   BYTE   UNIT     CODE           ?PR?SENSORMETHOD
000AF5H   000C85H   000191H   BYTE   UNIT     CODE           ?PR?_LOOP_RECV_COMUNICATE_DATA?PROJECT
000C86H   000DBFH   00013AH   BYTE   UNIT     CODE           ?PR?TOUCHKEYSCAN?TKDRIVER
000DC0H   000EF1H   000132H   BYTE   UNIT     CODE           ?PR?_MULTIPLEDEAL?SENSORMETHOD
000EF2H   000FEBH   0000FAH   BYTE   UNIT     CODE           ?PR?_RINGBUFFER_INIT?RINGBUFFER_C51
000FECH   0010DBH   0000F0H   BYTE   UNIT     CODE           ?PR?_FILTERDATADEAL?SENSORMETHOD
0010DCH   0011BAH   0000DFH   BYTE   UNIT     CODE           ?PR?_RINGBUFFER_POP?RINGBUFFER_C51
LX51 LINKER/LOCATER V4.66.87.0                                                        12/09/2024  11:33:43  PAGE 4


0011BBH   001281H   0000C7H   BYTE   UNIT     CODE           ?PR?_RINGBUFFER_PUSH?RINGBUFFER_C51
001282H   001333H   0000B2H   BYTE   UNIT     CODE           ?PR?TIMER0?TIMER_INIT
001334H   0013D1H   00009EH   BYTE   UNIT     CODE           ?C_INITSEG
0013D2H   00146CH   00009BH   BYTE   UNIT     CODE           ?PR?_UART1_INIT?SSI_INIT
00146DH   001506H   00009AH   BYTE   UNIT     CODE           ?C_C51STARTUP
001507H   00158FH   000089H   BYTE   UNIT     CODE           ?PR?TIMER2INT?TIMER_INIT
001590H   001618H   000089H   BYTE   UNIT     CODE           ?PR?USDELAY?SENSORMETHOD
001619H   00169DH   000085H   BYTE   UNIT     CODE           ?PR?PROJECT?PROJECT
00169EH   001721H   000084H   BYTE   UNIT     CODE           ?PR?TOUCHKEYINIT?SENSORMETHOD
001722H   0017A1H   000080H   BYTE   UNIT     CODE           ?PR?_ICHAADJUST?SENSORMETHOD
0017A2H   00181BH   00007AH   BYTE   UNIT     CODE           ?PR?TOUCHKEY_SERVICE?SENSORMETHOD
00181CH   001894H   000079H   BYTE   UNIT     CODE           ?PR?FILTERAVERGEDEAL?SENSORMETHOD
001895H   00190BH   000077H   BYTE   UNIT     CODE           ?PR?_HANDLE_TFT2MCU_DATACHECK?PROJECT
00190CH   00197FH   000074H   BYTE   UNIT     CODE           ?PR?_HANDLE_TFT2MCU_DATA?PROJECT
001980H   0019F2H   000073H   BYTE   UNIT     CODE           ?PR?_HANDLE_MCU2TFT_DATA?PROJECT
0019F3H   001A5AH   000068H   BYTE   UNIT     CODE           ?PR?_IS_RINGBUFFER_FULL?RINGBUFFER_C51
001A5BH   001AB3H   000059H   BYTE   UNIT     CODE           ?PR?TOUCHKEYCFGINIT?TKDRIVER
001AB4H   001B09H   000056H   BYTE   UNIT     CODE           ?PR?LOOP_WRITE_COMUNICATE_DATA?PROJECT
001B0AH   001B5EH   000055H   BYTE   UNIT     CODE           ?PR?UART1_INT?SSI_INIT
001B5FH   001BB2H   000054H   BYTE   UNIT     CODE           ?PR?CURRENTSENSORCHOOSE?TKDRIVER
001BB3H   001BFCH   00004AH   BYTE   UNIT     CODE           ?PR?_GETCFGMSG?TKDRIVER
001BFDH   001C42H   000046H   BYTE   UNIT     CODE           ?PR?_IS_RINGBUFFER_EMPTY?RINGBUFFER_C51
001C43H   001C86H   000044H   BYTE   UNIT     CODE           ?PR?_UART_SENDSTRING?SSI_INIT
001C87H   001CC6H   000040H   BYTE   UNIT     CODE           ?PR?_GETCURRFINGERVALUE?TKDRIVER
001CC7H   001D06H   000040H   BYTE   UNIT     CODE           ?PR?_GETTKYZTHRESHOLD?TKDRIVER
001D07H   001D43H   00003DH   BYTE   UNIT     CODE           ?PR?RADAR_CHECK?RADAR
001D44H   001D7FH   00003CH   BYTE   UNIT     CODE           ?PR?PWMDTY1_SET?TIMER_INIT
001D80H   001DBAH   00003BH   BYTE   UNIT     CODE           ?PR?CTK_ISR?TKDRIVER
001DBBH   001DF5H   00003BH   BYTE   UNIT     CODE           ?PR?INITIALIZESENSORFLAG?SENSORMETHOD
001DF6H   001E24H   00002FH   BYTE   UNIT     CODE           ?PR?SENSORKEYFLAG?SENSORMETHOD
001E25H   001E50H   00002CH   BYTE   UNIT     CODE           ?PR?MAIN?MAIN
001E51H   001E7AH   00002AH   BYTE   UNIT     CODE           ?PR?PWM_INIT?PWM_INIT
001E7BH   001EA1H   000027H   BYTE   UNIT     CODE           ?PR?TIMER_INIT?TIMER_INIT
001EA2H   001EC6H   000025H   BYTE   UNIT     CODE           ?PR?IO_INIT?IO_INIT
001EC7H   001EEBH   000025H   BYTE   UNIT     CODE           ?PR?FILTERCOMMCODE?SENSORMETHOD
001EECH   001F0CH   000021H   BYTE   UNIT     CODE           ?PR?EX1?EX_INIT
001F0DH   001F2CH   000020H   BYTE   UNIT     CODE           ?PR?_IS_200MS_TICK?TIMER_INIT
001F2DH   001F4CH   000020H   BYTE   UNIT     CODE           ?PR?_IS_MS_TICK?TIMER_INIT
001F4DH   001F6BH   00001FH   BYTE   UNIT     CODE           ?PR?INITIALIZEBASELINES?SENSORMETHOD
001F6CH   001F88H   00001DH   BYTE   UNIT     CODE           ?PR?RADAR_WORK?PROJECT
001F89H   001FA4H   00001CH   BYTE   UNIT     CODE           ?PR?_GETSCANTIMEVALUE?TKDRIVER
001FA5H   001FBBH   000017H   BYTE   UNIT     CODE           ?PR?_GETBASELINEADJUSTVALUE?TKDRIVER
001FBCH   001FCDH   000012H   BYTE   UNIT     CODE           ?PR?FILTERIIRINIT?SENSORMETHOD
001FCEH   001FDCH   00000FH   BYTE   UNIT     CODE           ?PR?UARTINT?UART_INIT
001FDDH   001FE8H   00000CH   BYTE   UNIT     CODE           ?PR?BTM_INT?BTM
001FE9H   001FF4H   00000CH   BYTE   UNIT     CODE           ?PR?GETTKYZCNT?TKDRIVER
001FF5H   001FFFH   00000BH   BYTE   UNIT     CODE           ?PR?SETONEKEYPUSHRESETTIME?TKDRIVER
002000H   00200AH   00000BH   BYTE   UNIT     CODE           ?PR?GETBASELINEUPDATETHRESHOLD?TKDRIVER
00200BH   002015H   00000BH   BYTE   UNIT     CODE           ?PR?GETINITAUTOUPDATETIME?TKDRIVER
002016H   002020H   00000BH   BYTE   UNIT     CODE           ?PR?ISDOUBLEKEYORSLIDEKEY?TKDRIVER
002021H   00202AH   00000AH   BYTE   UNIT     CODE           ?PR?GETUPCONFIRMCNT?TKDRIVER
00202BH   002033H   000009H   BYTE   UNIT     CODE           ?PR?RADAR_OPEN?RADAR
002034H   00203CH   000009H   BYTE   UNIT     CODE           ?PR?RADAR_ISCHECK?RADAR
00203DH   002043H   000007H   BYTE   UNIT     CODE           ?PR?RADAR_INIT?RADAR
002044H   002049H   000006H   BYTE   UNIT     CODE           ?PR?ADC_INTERRUPT?ADC_INIT
00204AH   002076H   00002DH   BYTE   UNIT     CONST          ?CO?TKDRIVER

* * * * * * * * * * *  X D A T A   M E M O R Y  * * * * * * * * * * * * *
000000H   000016H   000017H   BYTE   UNIT     XDATA          ?XD?TKDRIVER
000017H   00002AH   000014H   BYTE   UNIT     XDATA          ?XD?SSI_INIT
00002BH   00003BH   000011H   BYTE   UNIT     XDATA          ?XD?PROJECT
00003CH   00004BH   000010H   BYTE   UNIT     XDATA          ?XD?TIMER_INIT
00004CH   000059H   00000EH   BYTE   UNIT     XDATA          ?XD?MULTIPLICATION_DIVISION
00005AH   000065H   00000CH   BYTE   UNIT     XDATA          _XDATA_GROUP_
000066H   00006FH   00000AH   BYTE   UNIT     XDATA          ?XD?_DIVISION?MULTIPLICATION_DIVISION
LX51 LINKER/LOCATER V4.66.87.0                                                        12/09/2024  11:33:43  PAGE 5


000070H   000079H   00000AH   BYTE   UNIT     XDATA          ?XD?UART_INIT
00007AH   000083H   00000AH   BYTE   UNIT     XDATA          ?XD?_ADC_GETAVERAGEVALUE?ADC_INIT
000084H   00008CH   000009H   BYTE   UNIT     XDATA          ?XD?SENSORMETHOD
00008DH   000094H   000008H   BYTE   UNIT     XDATA          ?XD?_RINGBUFFER_INIT?RINGBUFFER_C51
000095H   00009CH   000008H   BYTE   UNIT     XDATA          ?XD?INIT_MEM
00009DH   0000A3H   000007H   BYTE   UNIT     XDATA          ?XD?_HANDLE_MCU2TFT_DATA?PROJECT
0000A4H   0000AAH   000007H   BYTE   UNIT     XDATA          ?XD?_HANDLE_TFT2MCU_DATACHECK?PROJECT
0000ABH   0000B0H   000006H   BYTE   UNIT     XDATA          ?XD?_UART1_INIT?SSI_INIT
0000B1H   0000B6H   000006H   BYTE   UNIT     XDATA          ?XD?_UART0_INIT?UART_INIT
0000B7H   0000BCH   000006H   BYTE   UNIT     XDATA          ?XD?_RINGBUFFER_POP?RINGBUFFER_C51
0000BDH   0000C1H   000005H   BYTE   UNIT     XDATA          ?XD?_IAP_TEST?IAP_INIT
0000C2H   0000C5H   000004H   BYTE   UNIT     XDATA          ?XD?MAIN
0000C6H   0000C9H   000004H   BYTE   UNIT     XDATA          ?XD?_IAPWRITE?IAP_INIT
0000CAH   0000CDH   000004H   BYTE   UNIT     XDATA          ?XD?_IAPREAD?IAP_INIT
0000CEH   0000D1H   000004H   BYTE   UNIT     XDATA          ?XD?_DELAY?LCD_INIT
0000D2H   0000D5H   000004H   BYTE   UNIT     XDATA          ?XD?_MULTIPLICATION?MULTIPLICATION_DIVISION
0000D6H   0000D9H   000004H   BYTE   UNIT     XDATA          ?XD?_UART_SENDSTRING?SSI_INIT
0000DAH   0000DDH   000004H   BYTE   UNIT     XDATA          ?XD?UART0_TEST?UART_INIT
0000DEH   0000E1H   000004H   BYTE   UNIT     XDATA          ?XD?_RINGBUFFER_PUSH?RINGBUFFER_C51
0000E2H   0000E4H   000003H   BYTE   UNIT     XDATA          ?XD?IAP_INIT
0000E5H   0000E7H   000003H   BYTE   UNIT     XDATA          ?XD?_ADC_INIT?ADC_INIT
0000E8H   0000EAH   000003H   BYTE   UNIT     XDATA          ?XD?_GETTKYZTHRESHOLD?TKDRIVER
0000EBH   0000EDH   000003H   BYTE   UNIT     XDATA          ?XD?_RINGBUFFER_FREE?RINGBUFFER_C51
0000EEH   0000F0H   000003H   BYTE   UNIT     XDATA          ?XD?_IS_RINGBUFFER_FULL?RINGBUFFER_C51
0000F1H   0000F3H   000003H   BYTE   UNIT     XDATA          ?XD?_IS_RINGBUFFER_EMPTY?RINGBUFFER_C51
0000F4H   0000F6H   000003H   BYTE   UNIT     XDATA          ?XD?_RINGBUFFER_GETREMAINCNT?RINGBUFFER_C51
0000F7H   0000F9H   000003H   BYTE   UNIT     XDATA          ?XD?_HANDLE_TFT2MCU_DATA?PROJECT
0000FAH   0000FCH   000003H   BYTE   UNIT     XDATA          ?XD?_LOOP_RECV_COMUNICATE_DATA?PROJECT
0000FDH   0000FEH   000002H   BYTE   UNIT     XDATA          ?XD?ADC_INIT
0000FFH   0000FFH   000001H   BYTE   UNIT     XDATA          ?XD?EX_INIT
000100H   000100H   000001H   BYTE   UNIT     XDATA          ?XD?_LCD_INIT?LCD_INIT
000101H   000101H   000001H   BYTE   UNIT     XDATA          ?XD?_IS_1MS_TICK?TIMER_INIT
000102H   000102H   000001H   BYTE   UNIT     XDATA          ?XD?_IS_200MS_TICK?TIMER_INIT
000103H   000103H   000001H   BYTE   UNIT     XDATA          ?XD?_IS_MS_TICK?TIMER_INIT
000104H   000104H   000001H   BYTE   UNIT     XDATA          ?XD?_GETCURRFINGERVALUE?TKDRIVER
000105H   000105H   000001H   BYTE   UNIT     XDATA          ?XD?_GETSCANTIMEVALUE?TKDRIVER
000106H   000106H   000001H   BYTE   UNIT     XDATA          ?XD?_GETBASELINEADJUSTVALUE?TKDRIVER
000107H   000107H   000001H   BYTE   UNIT     XDATA          ?XD?_GETCFGMSG?TKDRIVER

* * * * * * * * *   R E M O V E D     S E G M E N T S   * * * * * * * *
   *DEL*:           000006H   BYTE   UNIT     CODE           ?PR?BTM_TEST?BTM
   *DEL*:           000009H   BYTE   UNIT     CODE           ?PR?BTM_INIT?BTM
   *DEL*:           000006H   BYTE   UNIT     CODE           ?PR?EXTI_TEST?EX_INIT
   *DEL*:           00002DH   BYTE   UNIT     CODE           ?PR?EX_INIT?EX_INIT
   *DEL*:           000067H   BYTE   UNIT     CODE           ?PR?_IAP_TEST?IAP_INIT
   *DEL*:           000059H   BYTE   UNIT     CODE           ?PR?_IAPWRITE?IAP_INIT
   *DEL*:           00004CH   BYTE   UNIT     CODE           ?PR?_IAPREAD?IAP_INIT
   *DEL*:           000087H   BYTE   UNIT     CODE           ?PR?LCD_TEST?LCD_INIT
   *DEL*:           000010H   BYTE   UNIT     CODE           ?PR?_LCD_INIT?LCD_INIT
   *DEL*:           00005BH   BYTE   UNIT     CODE           ?PR?_DELAY?LCD_INIT
   *DEL*:           000072H   BYTE   UNIT     CODE           ?PR?MULTIPLIER_DIVIDER_TEST?MULTIPLICATION_DIVISION
   *DEL*:           000075H   BYTE   UNIT     CODE           ?PR?_MULTIPLICATION?MULTIPLICATION_DIVISION
   *DEL*:           00009DH   BYTE   UNIT     CODE           ?PR?_DIVISION?MULTIPLICATION_DIVISION
   *DEL*:           000006H   BYTE   UNIT     CODE           ?PR?PWM_TEST?PWM_INIT
   *DEL*:           00000FH   BYTE   UNIT     CODE           ?PR?GET_TICK_COUNT?TIMER_INIT
   *DEL*:           000020H   BYTE   UNIT     CODE           ?PR?_IS_1MS_TICK?TIMER_INIT
   *DEL*:           0000B9H   BYTE   UNIT     CODE           ?PR?UART0_TEST?UART_INIT
   *DEL*:           00007AH   BYTE   UNIT     CODE           ?PR?_UART0_INIT?UART_INIT
   *DEL*:           000019H   BYTE   UNIT     CODE           ?PR?ADC_TEST?ADC_INIT
   *DEL*:           000068H   BYTE   UNIT     CODE           ?PR?_ADC_INIT?ADC_INIT
   *DEL*:           00016CH   BYTE   UNIT     CODE           ?PR?_ADC_GETAVERAGEVALUE?ADC_INIT
   *DEL*:           000062H   BYTE   UNIT     CODE           ?PR?_RINGBUFFER_FREE?RINGBUFFER_C51
   *DEL*:           000023H   BYTE   UNIT     CODE           ?PR?_RINGBUFFER_GETREMAINCNT?RINGBUFFER_C51
   *DEL*:           00013FH   BYTE   UNIT     CODE           ?PR?_FREE?FREE
   *DEL*:           000006H   BYTE   UNIT     XDATA          ?XD?_FREE?FREE
LX51 LINKER/LOCATER V4.66.87.0                                                        12/09/2024  11:33:43  PAGE 6


   *DEL*:           00003CH   BYTE   UNIT     CODE           ?PR?_INIT_MEMPOOL?INIT_MEM



OVERLAY MAP OF MODULE:   .\Objects\Demo (?C_STARTUP)


FUNCTION/MODULE                                BIT_GROUP   XDATA_GROUP
--> CALLED FUNCTION/MODULE                    START  STOP  START  STOP
======================================================================
?C_C51STARTUP                                 ----- -----  ----- -----
  +--> MAIN/MAIN
  +--> ?C_INITSEG

MAIN/MAIN                                     ----- -----  ----- -----
  +--> IO_INIT/IO_INIT
  +--> TIMER_TEST/TIMER_INIT
  +--> PWM_INIT/PWM_INIT
  +--> RADAR_INIT/RADAR
  +--> TOUCHKEYINIT/SENSORMETHOD
  +--> _UART1_INIT/SSI_INIT
  +--> PROJECT/PROJECT
  +--> PWMDTY1_SET/TIMER_INIT

IO_INIT/IO_INIT                               ----- -----  ----- -----

TIMER_TEST/TIMER_INIT                         ----- -----  ----- -----
  +--> TIMER_INIT/TIMER_INIT

TIMER_INIT/TIMER_INIT                         ----- -----  ----- -----

PWM_INIT/PWM_INIT                             ----- -----  ----- -----

RADAR_INIT/RADAR                              ----- -----  ----- -----
  +--> RADAR_OPEN/RADAR
  +--> RADAR_CHECK/RADAR

RADAR_OPEN/RADAR                              ----- -----  ----- -----

RADAR_CHECK/RADAR                             ----- -----  ----- -----

TOUCHKEYINIT/SENSORMETHOD                     ----- -----  ----- -----
  +--> TOUCHKEYCFGINIT/TKDRIVER
  +--> _GETCFGMSG/TKDRIVER
  +--> _GETSCANTIMEVALUE/TKDRIVER
  +--> SENSORMETHOD
  +--> INITIALIZESENSORFLAG/SENSORMETHOD
  +--> FILTERAVERGEDEAL/SENSORMETHOD
  +--> INITIALIZEBASELINES/SENSORMETHOD

TOUCHKEYCFGINIT/TKDRIVER                      ----- -----  ----- -----
  +--> CURRENTSENSORCHOOSE/TKDRIVER

CURRENTSENSORCHOOSE/TKDRIVER                  ----- -----  ----- -----

_GETCFGMSG/TKDRIVER                           ----- -----  ----- -----
  +--> _GETBASELINEADJUSTVALUE/TKDRIVER

_GETBASELINEADJUSTVALUE/TKDRIVER              ----- -----  ----- -----

_GETSCANTIMEVALUE/TKDRIVER                    ----- -----  ----- -----

SENSORMETHOD                                  ----- -----  ----- -----

INITIALIZESENSORFLAG/SENSORMETHOD             ----- -----  ----- -----
LX51 LINKER/LOCATER V4.66.87.0                                                        12/09/2024  11:33:43  PAGE 7


  +--> SENSORMETHOD

FILTERAVERGEDEAL/SENSORMETHOD                 ----- -----  005AH 005BH
  +--> FILTERCOMMCODE/SENSORMETHOD
  +--> SENSORMETHOD
  +--> _ICHAADJUST/SENSORMETHOD
  +--> FILTERIIRINIT/SENSORMETHOD
  +--> GETINITAUTOUPDATETIME/TKDRIVER
  +--> _FILTERDATADEAL/SENSORMETHOD

FILTERCOMMCODE/SENSORMETHOD                   ----- -----  ----- -----
  +--> USDELAY/SENSORMETHOD

USDELAY/SENSORMETHOD                          ----- -----  005CH 005DH

_ICHAADJUST/SENSORMETHOD                      ----- -----  0064H 0065H
  +--> _GETBASELINEADJUSTVALUE/TKDRIVER
  +--> SENSORMETHOD
  +--> _GETSCANTIMEVALUE/TKDRIVER

FILTERIIRINIT/SENSORMETHOD                    ----- -----  ----- -----
  +--> SENSORMETHOD

GETINITAUTOUPDATETIME/TKDRIVER                ----- -----  ----- -----

_FILTERDATADEAL/SENSORMETHOD                  ----- -----  005CH 005EH
  +--> SENSORMETHOD
  +--> _GETCURRFINGERVALUE/TKDRIVER

_GETCURRFINGERVALUE/TKDRIVER                  ----- -----  ----- -----

INITIALIZEBASELINES/SENSORMETHOD              ----- -----  ----- -----
  +--> SENSORMETHOD

_UART1_INIT/SSI_INIT                          ----- -----  ----- -----
  +--> _RINGBUFFER_INIT/RINGBUFFER_C51

_RINGBUFFER_INIT/RINGBUFFER_C51               ----- -----  ----- -----

PROJECT/PROJECT                               ----- -----  ----- -----
  +--> TOUCHKEYSCAN/TKDRIVER
  +--> LOOP_WRITE_COMUNICATE_DATA/PROJECT
  +--> _LOOP_RECV_COMUNICATE_DATA/PROJECT
  +--> RADAR_WORK/PROJECT
  +--> _IS_200MS_TICK/TIMER_INIT
  +--> _UART_SENDSTRING/SSI_INIT
  +--> TOUCHKEYRESTART/SENSORMETHOD

TOUCHKEYSCAN/TKDRIVER                         ----- -----  ----- -----
  +--> GETISNEEDUPDATEBASELINE/SENSORMETHOD
  +--> SENSORKEYFLAG/SENSORMETHOD
  +--> SETNEEDUPDATEBASELINE/SENSORMETHOD
  +--> ISDOUBLEKEYORSLIDEKEY/TKDRIVER
  +--> SETONEKEYPUSHRESETTIME/TKDRIVER
  +--> _MULTIPLEDEAL/SENSORMETHOD

GETISNEEDUPDATEBASELINE/SENSORMETHOD          ----- -----  ----- -----

SENSORKEYFLAG/SENSORMETHOD                    ----- -----  005AH 005AH
  +--> _FILTERDATADEAL/SENSORMETHOD
  +--> _SENSORRENOVATE/SENSORMETHOD

_SENSORRENOVATE/SENSORMETHOD                  ----- -----  005BH 0063H
  +--> SENSORMETHOD
  +--> _GETCURRFINGERVALUE/TKDRIVER
LX51 LINKER/LOCATER V4.66.87.0                                                        12/09/2024  11:33:43  PAGE 8


  +--> GETCSFUNCTION/TKDRIVER
  +--> ISDOUBLEKEYORSLIDEKEY/TKDRIVER
  +--> GETTKYZCNT/TKDRIVER
  +--> _GETTKYZTHRESHOLD/TKDRIVER
  +--> GETBASELINEUPDATETHRESHOLD/TKDRIVER
  +--> GETUPCONFIRMCNT/TKDRIVER
  +--> _ICHAADJUST/SENSORMETHOD

GETCSFUNCTION/TKDRIVER                        ----- -----  ----- -----

ISDOUBLEKEYORSLIDEKEY/TKDRIVER                ----- -----  ----- -----

GETTKYZCNT/TKDRIVER                           ----- -----  ----- -----

_GETTKYZTHRESHOLD/TKDRIVER                    ----- -----  ----- -----
  +--> _GETCURRFINGERVALUE/TKDRIVER

GETBASELINEUPDATETHRESHOLD/TKDRIVER           ----- -----  ----- -----

GETUPCONFIRMCNT/TKDRIVER                      ----- -----  ----- -----

SETNEEDUPDATEBASELINE/SENSORMETHOD            ----- -----  ----- -----

SETONEKEYPUSHRESETTIME/TKDRIVER               ----- -----  ----- -----

_MULTIPLEDEAL/SENSORMETHOD                    ----- -----  005AH 005BH
  +--> SENSORMETHOD
  +--> INITIALIZESENSORFLAG/SENSORMETHOD
  +--> FILTERIIRINIT/SENSORMETHOD
  +--> _FILTERDATADEAL/SENSORMETHOD
  +--> INITIALIZEBASELINES/SENSORMETHOD

LOOP_WRITE_COMUNICATE_DATA/PROJECT            ----- -----  ----- -----
  +--> _HANDLE_MCU2TFT_DATA/PROJECT

_HANDLE_MCU2TFT_DATA/PROJECT                  ----- -----  ----- -----

_LOOP_RECV_COMUNICATE_DATA/PROJECT            ----- -----  ----- -----
  +--> _RINGBUFFER_POP/RINGBUFFER_C51
  +--> _HANDLE_TFT2MCU_DATACHECK/PROJECT
  +--> _HANDLE_TFT2MCU_DATA/PROJECT

_RINGBUFFER_POP/RINGBUFFER_C51                ----- -----  ----- -----
  +--> _IS_RINGBUFFER_EMPTY/RINGBUFFER_C51

_IS_RINGBUFFER_EMPTY/RINGBUFFER_C51           ----- -----  ----- -----

_HANDLE_TFT2MCU_DATACHECK/PROJECT             ----- -----  ----- -----

_HANDLE_TFT2MCU_DATA/PROJECT                  ----- -----  ----- -----

RADAR_WORK/PROJECT                            ----- -----  ----- -----
  +--> RADAR_ISCHECK/RADAR

RADAR_ISCHECK/RADAR                           ----- -----  ----- -----

_IS_200MS_TICK/TIMER_INIT                     ----- -----  ----- -----

_UART_SENDSTRING/SSI_INIT                     ----- -----  ----- -----

TOUCHKEYRESTART/SENSORMETHOD                  ----- -----  ----- -----

PWMDTY1_SET/TIMER_INIT                        ----- -----  ----- -----
  +--> _IS_MS_TICK/TIMER_INIT

LX51 LINKER/LOCATER V4.66.87.0                                                        12/09/2024  11:33:43  PAGE 9


_IS_MS_TICK/TIMER_INIT                        ----- -----  ----- -----

?C_INITSEG                                    ----- -----  ----- -----

*** NEW ROOT ********************************

BTM_INT/BTM                                   ----- -----  ----- -----

*** NEW ROOT ********************************

EX0/EX_INIT                                   ----- -----  ----- -----

*** NEW ROOT ********************************

EX1/EX_INIT                                   ----- -----  ----- -----

*** NEW ROOT ********************************

EX2/EX_INIT                                   ----- -----  ----- -----

*** NEW ROOT ********************************

PWMINT/PWM_INIT                               ----- -----  ----- -----

*** NEW ROOT ********************************

UART1_INT/SSI_INIT                            ----- -----  ----- -----
  +--> _RINGBUFFER_PUSH/RINGBUFFER_C51

_RINGBUFFER_PUSH/RINGBUFFER_C51               ----- -----  ----- -----
  +--> _IS_RINGBUFFER_FULL/RINGBUFFER_C51

_IS_RINGBUFFER_FULL/RINGBUFFER_C51            ----- -----  ----- -----

*** NEW ROOT ********************************

TIMER0/TIMER_INIT                             ----- -----  ----- -----

*** NEW ROOT ********************************

TIMER1/TIMER_INIT                             ----- -----  ----- -----

*** NEW ROOT ********************************

TIMER2INT/TIMER_INIT                          ----- -----  ----- -----

*** NEW ROOT ********************************

UARTINT/UART_INIT                             ----- -----  ----- -----

*** NEW ROOT ********************************

ADC_INTERRUPT/ADC_INIT                        ----- -----  ----- -----

*** NEW ROOT ********************************

CTK_ISR/TKDRIVER                              ----- -----  ----- -----
  +--> TOUCHKEY_SERVICE/SENSORMETHOD

TOUCHKEY_SERVICE/SENSORMETHOD                 21H.1 21H.1  ----- -----
  +--> SENSORMETHOD
  +--> _GETCFGMSG/TKDRIVER
  +--> _GETSCANTIMEVALUE/TKDRIVER
  +--> _GETBASELINEADJUSTVALUE/TKDRIVER

LX51 LINKER/LOCATER V4.66.87.0                                                        12/09/2024  11:33:43  PAGE 10




PUBLIC SYMBOLS OF MODULE:  .\Objects\Demo (?C_STARTUP)


      VALUE       CLASS    TYPE      PUBLIC SYMBOL NAME
      =================================================
      02000066H   XDATA    BYTE      ?_Division?BYTE
      0200008DH   XDATA    BYTE      ?_ringBuffer_init?BYTE
      020000B7H   XDATA    BYTE      ?_ringBuffer_pop?BYTE
      020000B1H   XDATA    BYTE      ?_Uart0_Init?BYTE
      020000ABH   XDATA    BYTE      ?_UART1_Init?BYTE
      010004B7H   CODE     ---       ?C?CCASE
      0100005EH   CODE     ---       ?C?CLDOPTR
      00000000H   NUMBER   ---       ?C?CODESEG
      0100009DH   CODE     ---       ?C?CSTOPTR
      0100008BH   CODE     ---       ?C?CSTPTR
      010001EBH   CODE     ---       ?C?IILDOPTR
      0100015CH   CODE     ---       ?C?IILDX
      01000172H   CODE     ---       ?C?ILDIX
      010001B3H   CODE     ---       ?C?ILDOPTR
      01000188H   CODE     ---       ?C?ILDPTR
      010000BFH   CODE     ---       ?C?IMUL
      01000257H   CODE     ---       ?C?ISTOPTR
      01000238H   CODE     ---       ?C?ISTPTR
      01000284H   CODE     ---       ?C?LMUL
      010003A1H   CODE     ---       ?C?LNOT
      010003D2H   CODE     ---       ?C?LSHL
      010003F1H   CODE     ---       ?C?LSTKXDATA
      010003E5H   CODE     ---       ?C?LSTXDATA
      01000422H   CODE     ---       ?C?OFFXADD
      01000513H   CODE     ---       ?C?PLDCODE
      010004DDH   CODE     ---       ?C?PLDIDATA
      0100042EH   CODE     ---       ?C?PLDOPTR
      01000501H   CODE     ---       ?C?PLDPDATA
      010004EFH   CODE     ---       ?C?PLDXDATA
      010004E6H   CODE     ---       ?C?PSTIDATA
      0100045EH   CODE     ---       ?C?PSTOPTR
      0100050AH   CODE     ---       ?C?PSTPDATA
      010004F8H   CODE     ---       ?C?PSTXDATA
      01000126H   CODE     ---       ?C?SIDIV
      010000D1H   CODE     ---       ?C?UIDIV
      010003AEH   CODE     ---       ?C?ULCMP
      0100030FH   CODE     ---       ?C?ULDIV
      010003BFH   CODE     ---       ?C?ULSHR
      00000000H   NUMBER   ---       ?C?XDATASEG
      010014C2H   CODE     ---       ?C_START
      01000000H   CODE     ---       ?C_STARTUP
      02000095H   XDATA    ---       __mem_avail__
*DEL*:00000000H   CODE     ---       _ADC_GetAverageValue
*DEL*:00000000H   CODE     ---       _ADC_Init
*DEL*:00000000H   CODE     ---       _Delay
*DEL*:00000000H   CODE     ---       _Division
      01000FECH   CODE     ---       _FilterDataDeal
*DEL*:00000000H   CODE     ---       _free
      01001FA5H   CODE     ---       _GetBaseLineAdjustValue
      01001BB3H   CODE     ---       _GetCfgMsg
      01001C87H   CODE     ---       _GetCurrFingerValue
      01001F89H   CODE     ---       _GetScanTimeValue
      01001CC7H   CODE     ---       _GetTKYzThreshold
      01001980H   CODE     ---       _handle_mcu2tft_data
      0100190CH   CODE     ---       _handle_tft2mcu_data
      01001895H   CODE     ---       _handle_tft2mcu_datacheck
*DEL*:00000000H   CODE     ---       _IAP_Test
*DEL*:00000000H   CODE     ---       _IAPRead
LX51 LINKER/LOCATER V4.66.87.0                                                        12/09/2024  11:33:43  PAGE 11


*DEL*:00000000H   CODE     ---       _IAPWrite
      01001722H   CODE     ---       _ICHAAdjust
*DEL*:00000000H   CODE     ---       _init_mempool
*DEL*:00000000H   CODE     ---       _is_1ms_tick
      01001F0DH   CODE     ---       _is_200ms_tick
      01001F2DH   CODE     ---       _is_ms_tick
      01001BFDH   CODE     ---       _is_ringBuffer_empty
      010019F3H   CODE     ---       _is_ringBuffer_full
*DEL*:00000000H   CODE     ---       _LCD_Init
      01000AF5H   CODE     ---       _loop_recv_comunicate_data
      01000DC0H   CODE     ---       _MultipleDeal
*DEL*:00000000H   CODE     ---       _Multiplication
*DEL*:00000000H   CODE     ---       _ringBuffer_free
*DEL*:00000000H   CODE     ---       _ringBuffer_getRemainCnt
      01000EF2H   CODE     ---       _ringBuffer_init
      010010DCH   CODE     ---       _ringBuffer_pop
      010011BBH   CODE     ---       _ringBuffer_push
      0100051FH   CODE     ---       _SensorRenovate
*DEL*:00000000H   CODE     ---       _Uart0_Init
      010013D2H   CODE     ---       _UART1_Init
      01001C43H   CODE     ---       _UART_Sendstring
*SFR* 000000D0H.6 DATA     BIT       AC
*SFR* 000000E0H   DATA     BYTE      ACC
      01002044H   CODE     ---       ADC_Interrupt
*DEL*:00000000H   CODE     ---       ADC_Test
*SFR* 000000ABH   DATA     BYTE      ADCCFG0
*SFR* 000000ACH   DATA     BYTE      ADCCFG1
*SFR* 000000AAH   DATA     BYTE      ADCCFG2
*SFR* 000000ADH   DATA     BYTE      ADCCON
      00000021H.0 BIT      BIT       AdcFlag
      020000FDH   XDATA    WORD      ADCValue
*SFR* 000000AFH   DATA     BYTE      ADCVH
*SFR* 000000AEH   DATA     BYTE      ADCVL
*SFR* 000000F0H   DATA     BYTE      B
      02000001H   XDATA    ---       BaseLine
      0200000CH   XDATA    ---       BaseLineAdjusttmp
      00000020H.2 BIT      BIT       bMultiple
      00000020H.3 BIT      BIT       bNeedUpdate
      00000020H.4 BIT      BIT       BreatheLED
*DEL*:00000000H   CODE     ---       BTM_Init
      01001FDDH   CODE     ---       BTM_Int
*DEL*:00000000H   CODE     ---       BTM_Test
*SFR* 000000CEH   DATA     BYTE      BTMCON
      01002076H   CONST    BYTE      CFG_CYCLE_CNT
      01002074H   CONST    BYTE      CFG_OVERLOW_MAX_COUNT
      01002075H   CONST    BYTE      CFG_RESET_BASELINE_CNT
      00000020H.5 BIT      BIT       ChangeFlag
      0200002DH   XDATA    ---       com_data1
      02000000H   XDATA    BYTE      ConfirmTouchCnt
*SFR* 000000C8H.0 DATA     BIT       CP
      01001D80H   CODE     ---       CTK_ISR
      02000004H   XDATA    ---       CurrentChannel
      0000002AH   DATA     BYTE      CurrentChannelMax
      0200008BH   XDATA    BYTE      CurrentIndex
      01001B5FH   CODE     ---       CurrentSensorChoose
*SFR* 000000D0H.7 DATA     BIT       CY
      02000009H   XDATA    ---       DifferAccum
*SFR* 00000083H   DATA     BYTE      DPH
*SFR* 00000082H   DATA     BYTE      DPL
*SFR* 000000A8H.7 DATA     BIT       EA
*SFR* 000000A8H.6 DATA     BIT       EADC
*SFR* 000000A8H.0 DATA     BIT       EINT0
*SFR* 000000A8H.2 DATA     BIT       EINT1
*SFR* 000000A8H.1 DATA     BIT       ET0
*SFR* 000000A8H.3 DATA     BIT       ET1
LX51 LINKER/LOCATER V4.66.87.0                                                        12/09/2024  11:33:43  PAGE 12


*SFR* 000000A8H.5 DATA     BIT       ET2
*SFR* 000000A8H.4 DATA     BIT       EUART
      0100000EH   CODE     ---       EX0
      01001EECH   CODE     ---       EX1
      01000016H   CODE     ---       EX2
*DEL*:00000000H   CODE     ---       EX_Init
*SFR* 000000E9H   DATA     BYTE      EXA0
*SFR* 000000EAH   DATA     BYTE      EXA1
*SFR* 000000EBH   DATA     BYTE      EXA2
*SFR* 000000ECH   DATA     BYTE      EXA3
*SFR* 000000F7H   DATA     BYTE      EXADH
*SFR* 000000EEH   DATA     BYTE      EXBH
*SFR* 000000EDH   DATA     BYTE      EXBL
*SFR* 000000C8H.3 DATA     BIT       EXEN2
*SFR* 000000C8H.6 DATA     BIT       EXF2
      020000C2H   XDATA    DWORD     exKeyValueFlag
*DEL*:00000000H   CODE     ---       EXTI_Test
*SFR* 000000D0H.5 DATA     BIT       F0
*SFR* 000000D0H.1 DATA     BIT       F1
      0100181CH   CODE     ---       FilterAvergeDeal
      01001EC7H   CODE     ---       FilterCommCode
      02000013H   XDATA    ---       FilterData
      01001FBCH   CODE     ---       FilterIIRInit
      00000020H.7 BIT      BIT       flag
      02000003H   XDATA    ---       FloatAreaCnt
      02000088H   XDATA    WORD      FlowFingerRoundCnt
      02000085H   XDATA    BYTE      FlowFingerRoundIndex
      02000042H   XDATA    DWORD     g_1ms_cnt
      02000017H   XDATA    ---       g_comunicate_rb
      0200004BH   XDATA    BYTE      g_flag_1ms
      0200004AH   XDATA    BYTE      g_flag_200ms
      02000048H   XDATA    BYTE      g_flag_ms
*DEL*:00000000H   CODE     ---       get_tick_count
      01002000H   CODE     ---       GetBaselineUpdateThreshold
      01000026H   CODE     ---       GetCsFunction
      0100200BH   CODE     ---       GetInitAutoUpdateTime
      01000036H   CODE     ---       GetIsNeedUpdateBaseline
      01001FE9H   CODE     ---       GetTKYzCnt
      01002021H   CODE     ---       GetUpConfirmCnt
      020000E3H   XDATA    ---       IapAddr
*SFR* 000000F4H   DATA     BYTE      IAPADE
*SFR* 000000F3H   DATA     BYTE      IAPADH
*SFR* 000000F2H   DATA     BYTE      IAPADL
*SFR* 000000F6H   DATA     BYTE      IAPCTL
*SFR* 000000F5H   DATA     BYTE      IAPDAT
*SFR* 000000F1H   DATA     BYTE      IAPKEY
      020000E2H   XDATA    BYTE      IapReadData
*SFR* 000000A8H   DATA     BYTE      IE
*SFR* 000000A9H   DATA     BYTE      IE1
      01001F4DH   CODE     ---       InitializeBaselines
      01001DBBH   CODE     ---       InitializeSensorFlag
*SFR* 000000BAH   DATA     BYTE      INT0F
*SFR* 000000BBH   DATA     BYTE      INT0R
      020000FFH   XDATA    BYTE      INT1_flag
*SFR* 000000BCH   DATA     BYTE      INT1F
*SFR* 000000BDH   DATA     BYTE      INT1R
*SFR* 000000C6H   DATA     BYTE      INT2F
*SFR* 000000C7H   DATA     BYTE      INT2R
      01001EA2H   CODE     ---       IO_Init
*SFR* 00000097H   DATA     BYTE      IOHCON
*SFR* 000000B8H   DATA     BYTE      IP
*SFR* 000000B9H   DATA     BYTE      IP1
*SFR* 000000B8H.6 DATA     BIT       IPADC
*SFR* 000000B8H.0 DATA     BIT       IPINT0
*SFR* 000000B8H.2 DATA     BIT       IPINT1
LX51 LINKER/LOCATER V4.66.87.0                                                        12/09/2024  11:33:43  PAGE 13


*SFR* 000000B8H.1 DATA     BIT       IPT0
*SFR* 000000B8H.3 DATA     BIT       IPT1
*SFR* 000000B8H.5 DATA     BIT       IPT2
*SFR* 000000B8H.4 DATA     BIT       IPUART
      01002016H   CODE     ---       IsDoubleKeyOrSlideKey
      0200008CH   XDATA    BYTE      IsInNosicValue
      00000022H   DATA     DWORD     KeyFlag
      00000026H   DATA     DWORD     KeyMark
      02000046H   XDATA    INT       l_1ms_cnt
*DEL*:00000000H   CODE     ---       LCD_Test
      01001AB4H   CODE     ---       loop_write_comunicate_data
      02000008H   XDATA    ---       LowFingerDataCnt
      01001E25H   CODE     ---       main
      0200008AH   XDATA    BYTE      MultipleDealIndex
      02000016H   XDATA    BYTE      MultipleDealTpye
      0200000DH   XDATA    WORD      MultipleLNum
*DEL*:00000000H   CODE     ---       Multiplier_Divider_Test
      02000015H   XDATA    ---       NoTouchCnt
*SFR* 000000EFH   DATA     BYTE      OPERCON
*SFR* 000000FEH   DATA     BYTE      OPINX
*SFR* 000000FFH   DATA     BYTE      OPREG
*SFR* 0000008FH   DATA     BYTE      OTCON
*SFR* 000000D0H.2 DATA     BIT       OV
*SFR* 000000D0H.0 DATA     BIT       P
*SFR* 00000080H   DATA     BYTE      P0
*SFR* 00000080H.0 DATA     BIT       P00
*SFR* 00000080H.1 DATA     BIT       P01
*SFR* 00000080H.2 DATA     BIT       P02
*SFR* 00000080H.3 DATA     BIT       P03
*SFR* 00000080H.4 DATA     BIT       P04
*SFR* 00000080H.5 DATA     BIT       P05
*SFR* 00000080H.6 DATA     BIT       P06
*SFR* 00000080H.7 DATA     BIT       P07
*SFR* 0000009AH   DATA     BYTE      P0CON
*SFR* 0000009BH   DATA     BYTE      P0PH
*SFR* 0000009CH   DATA     BYTE      P0VO
*SFR* 00000090H   DATA     BYTE      P1
*SFR* 00000090H.0 DATA     BIT       P10
*SFR* 00000090H.1 DATA     BIT       P11
*SFR* 00000090H.2 DATA     BIT       P12
*SFR* 00000090H.3 DATA     BIT       P13
*SFR* 00000090H.4 DATA     BIT       P14
*SFR* 00000090H.5 DATA     BIT       P15
*SFR* 00000090H.6 DATA     BIT       P16
*SFR* 00000090H.7 DATA     BIT       P17
*SFR* 00000091H   DATA     BYTE      P1CON
*SFR* 00000092H   DATA     BYTE      P1PH
*SFR* 000000A0H   DATA     BYTE      P2
*SFR* 000000A0H.0 DATA     BIT       P20
*SFR* 000000A0H.1 DATA     BIT       P21
*SFR* 000000A0H.2 DATA     BIT       P22
*SFR* 000000A0H.3 DATA     BIT       P23
*SFR* 000000A0H.4 DATA     BIT       P24
*SFR* 000000A0H.5 DATA     BIT       P25
*SFR* 000000A0H.6 DATA     BIT       P26
*SFR* 000000A0H.7 DATA     BIT       P27
*SFR* 000000A1H   DATA     BYTE      P2CON
*SFR* 000000A2H   DATA     BYTE      P2PH
*SFR* 000000D8H   DATA     BYTE      P5
*SFR* 000000D8H.0 DATA     BIT       P50
*SFR* 000000D8H.1 DATA     BIT       P51
*SFR* 000000D9H   DATA     BYTE      P5CON
*SFR* 000000DAH   DATA     BYTE      P5PH
*SFR* 00000087H   DATA     BYTE      PCON
      02000050H   XDATA    DWORD     product
LX51 LINKER/LOCATER V4.66.87.0                                                        12/09/2024  11:33:43  PAGE 14


      01001619H   CODE     ---       project
*SFR* 000000D0H   DATA     BYTE      PSW
      02000049H   XDATA    BYTE      pwm1_duty
      01001E51H   CODE     ---       PWM_Init
*DEL*:00000000H   CODE     ---       PWM_Test
*SFR* 000000D1H   DATA     BYTE      PWMCFG
*SFR* 000000D2H   DATA     BYTE      PWMCON
*SFR* 000000D5H   DATA     BYTE      PWMDTY0
*SFR* 000000D6H   DATA     BYTE      PWMDTY1
      01001D44H   CODE     ---       PWMDTY1_Set
*SFR* 000000D7H   DATA     BYTE      PWMDTY2
*SFR* 000000DDH   DATA     BYTE      PWMDTY3
*SFR* 000000DEH   DATA     BYTE      PWMDTY4
*SFR* 000000DFH   DATA     BYTE      PWMDTY5
*SFR* 000000D4H   DATA     BYTE      PWMDTYA
*SFR* 000000DCH   DATA     BYTE      PWMDTYB
      0100000AH   CODE     ---       PWMInt
*SFR* 000000D3H   DATA     BYTE      PWMPRD
      0200004CH   XDATA    DWORD     quotient
      01001D07H   CODE     ---       Radar_check
      0100203DH   CODE     ---       Radar_init
      01002034H   CODE     ---       Radar_Ischeck
      0100202BH   CODE     ---       Radar_open
      01001F6CH   CODE     ---       Radar_work
      0200002CH   XDATA    BYTE      RadarFlag
      02000005H   XDATA    ---       RawData
*SFR* 00000098H.2 DATA     BIT       RB8
*SFR* 000000CBH   DATA     BYTE      RCAP2H
*SFR* 000000CAH   DATA     BYTE      RCAP2L
*SFR* 000000C8H.5 DATA     BIT       RCLK
      02000058H   XDATA    WORD      remainder
*SFR* 00000098H.4 DATA     BIT       REN
      0200000BH   XDATA    ---       RestAreaCnt
      02000054H   XDATA    ---       result
*SFR* 00000098H.0 DATA     BIT       RI
*SFR* 000000D0H.3 DATA     BIT       RS0
*SFR* 000000D0H.4 DATA     BIT       RS1
*SFR* 00000099H   DATA     BYTE      SBUF
      02000086H   XDATA    WORD      ScanTime
*SFR* 00000098H   DATA     BYTE      SCON
      01001DF6H   CODE     ---       SensorKeyFlag
      0100003EH   CODE     ---       SetNeedUpdateBaseline
      02000012H   XDATA    CHAR      SetNoiseThreshold
      01001FF5H   CODE     ---       SetOneKeyPushResetTime
*SFR* 00000098H.7 DATA     BIT       SM0
*SFR* 00000098H.6 DATA     BIT       SM1
*SFR* 00000098H.5 DATA     BIT       SM2
      0200000FH   XDATA    BYTE      SOCAPI_TouchKeyStatus
*SFR* 00000081H   DATA     BYTE      SP
*SFR* 0000009DH   DATA     BYTE      SSCON0
*SFR* 0000009EH   DATA     BYTE      SSCON1
*SFR* 00000095H   DATA     BYTE      SSCON2
*SFR* 0000009FH   DATA     BYTE      SSDAT
      02000034H   XDATA    BYTE      SwitchFlag
*SFR* 000000C8H.1 DATA     BIT       T2
*SFR* 000000C8H   DATA     BYTE      T2CON
*SFR* 000000C9H   DATA     BYTE      T2MOD
*SFR* 00000098H.3 DATA     BIT       TB8
*SFR* 000000C8H.4 DATA     BIT       TCLK
*SFR* 00000088H   DATA     BYTE      TCON
*SFR* 00000088H.5 DATA     BIT       TF0
*SFR* 00000088H.7 DATA     BIT       TF1
*SFR* 000000C8H.7 DATA     BIT       TF2
*SFR* 0000008CH   DATA     BYTE      TH0
*SFR* 0000008DH   DATA     BYTE      TH1
LX51 LINKER/LOCATER V4.66.87.0                                                        12/09/2024  11:33:43  PAGE 15


*SFR* 000000CDH   DATA     BYTE      TH2
*SFR* 00000098H.1 DATA     BIT       TI
      01001282H   CODE     ---       timer0
      0100001EH   CODE     ---       timer1
      01001507H   CODE     ---       Timer2Int
      01001E7BH   CODE     ---       Timer_Init
      01000006H   CODE     ---       Timer_Test
*SFR* 000000D0H.7 DATA     BIT       TK_CY
*SFR* 000000D0H   DATA     BYTE      TK_PSW
      0100204AH   CONST    ---       TKCFG
      0100206CH   CONST    ---       TKChannelCfg
*SFR* 0000008AH   DATA     BYTE      TL0
*SFR* 0000008BH   DATA     BYTE      TL1
*SFR* 000000CCH   DATA     BYTE      TL2
*SFR* 0000008EH   DATA     BYTE      TMCON
*SFR* 00000089H   DATA     BYTE      TMOD
      02000007H   XDATA    ---       TouchCnt
      010017A2H   CODE     ---       TouchKey_Service
      01001A5BH   CODE     ---       TouchKeyCFGInit
      0100169EH   CODE     ---       TouchKeyInit
      0100002EH   CODE     ---       TouchKeyRestart
      01000C86H   CODE     ---       TouchKeyScan
*SFR* 00000088H.4 DATA     BIT       TR0
*SFR* 00000088H.6 DATA     BIT       TR1
*SFR* 000000C8H.2 DATA     BIT       TR2
*DEL*:00000000H   CODE     ---       Uart0_Test
      01001B0AH   CODE     ---       Uart1_Int
      02000035H   XDATA    ---       Uart1_TxData
      00000020H.6 BIT      BIT       Uart1SendFlag
      02000070H   XDATA    ---       UART_RxData
      01001FCEH   CODE     ---       UartInt
      00000020H.1 BIT      BIT       UartReceiveFlag
      00000020H.0 BIT      BIT       UartSendFlag
      02000010H   XDATA    WORD      UpdateBaseLNum
      01001590H   CODE     ---       Usdelay
*SFR* 000000CFH   DATA     BYTE      WDTCON



SYMBOL TABLE OF MODULE:  .\Objects\Demo (?C_STARTUP)

      VALUE       REP       CLASS    TYPE      SYMBOL NAME
      ====================================================
      ---         MODULE    ---      ---       ?C_STARTUP
      01000000H   PUBLIC    CODE     ---       ?C_STARTUP
      000000E0H   SYMBOL    DATA     ---       ACC
      000000F0H   SYMBOL    DATA     ---       B
      00000083H   SYMBOL    DATA     ---       DPH
      00000082H   SYMBOL    DATA     ---       DPL
      00000000H   SYMBOL    NUMBER   ---       IBPSTACK
      00000100H   SYMBOL    NUMBER   ---       IBPSTACKTOP
      00000100H   SYMBOL    NUMBER   ---       IDATALEN
      01001470H   SYMBOL    CODE     ---       IDATALOOP
      00000000H   SYMBOL    NUMBER   ---       PBPSTACK
      00000100H   SYMBOL    NUMBER   ---       PBPSTACKTOP
      00000000H   SYMBOL    NUMBER   ---       PDATALEN
      00000000H   SYMBOL    NUMBER   ---       PDATASTART
      00000000H   SYMBOL    NUMBER   ---       PPAGE
      00000000H   SYMBOL    NUMBER   ---       PPAGEENABLE
      000000A0H   SYMBOL    DATA     ---       PPAGE_SFR
      00000081H   SYMBOL    DATA     ---       SP
      0100146DH   SYMBOL    CODE     ---       STARTUP1
      00000000H   SYMBOL    NUMBER   ---       XBPSTACK
      00000000H   SYMBOL    NUMBER   ---       XBPSTACKTOP
      00000300H   SYMBOL    NUMBER   ---       XDATALEN
LX51 LINKER/LOCATER V4.66.87.0                                                        12/09/2024  11:33:43  PAGE 16


      0100147BH   SYMBOL    CODE     ---       XDATALOOP
      00000000H   SYMBOL    NUMBER   ---       XDATASTART
      01000000H   LINE      CODE     ---       #126
      0100146DH   LINE      CODE     ---       #133
      0100146FH   LINE      CODE     ---       #134
      01001470H   LINE      CODE     ---       #135
      01001471H   LINE      CODE     ---       #136
      01001473H   LINE      CODE     ---       #140
      01001476H   LINE      CODE     ---       #141
      01001478H   LINE      CODE     ---       #145
      0100147AH   LINE      CODE     ---       #147
      0100147BH   LINE      CODE     ---       #148
      0100147CH   LINE      CODE     ---       #149
      0100147DH   LINE      CODE     ---       #150
      0100147FH   LINE      CODE     ---       #151
      01001481H   LINE      CODE     ---       #185
      01001484H   LINE      CODE     ---       #196

      ---         MODULE    ---      ---       MAIN
      020000C2H   PUBLIC    XDATA    DWORD     exKeyValueFlag
      01001E25H   PUBLIC    CODE     ---       main
      000000FFH   SFRSYM    DATA     BYTE      OPREG
      00000080H   SFRSYM    DATA     BYTE      P0
      0000009FH   SFRSYM    DATA     BYTE      SSDAT
      00000090H   SFRSYM    DATA     BYTE      P1
      000000A0H   SFRSYM    DATA     BYTE      P2
      000000A8H.4 SFRSYM    DATA     BIT       EUART
      0000008EH   SFRSYM    DATA     BYTE      TMCON
      000000D0H.6 SFRSYM    DATA     BIT       AC
      0000008FH   SFRSYM    DATA     BYTE      OTCON
      000000D8H   SFRSYM    DATA     BYTE      P5
      000000A8H.7 SFRSYM    DATA     BIT       EA
      000000C8H.1 SFRSYM    DATA     BIT       T2
      000000A8H.6 SFRSYM    DATA     BIT       EADC
      000000A8H   SFRSYM    DATA     BYTE      IE
      000000E9H   SFRSYM    DATA     BYTE      EXA0
      000000FEH   SFRSYM    DATA     BYTE      OPINX
      000000EAH   SFRSYM    DATA     BYTE      EXA1
      000000EBH   SFRSYM    DATA     BYTE      EXA2
      000000ECH   SFRSYM    DATA     BYTE      EXA3
      000000C8H.0 SFRSYM    DATA     BIT       CP
      000000C8H.6 SFRSYM    DATA     BIT       EXF2
      000000D5H   SFRSYM    DATA     BYTE      PWMDTY0
      000000EFH   SFRSYM    DATA     BYTE      OPERCON
      000000D6H   SFRSYM    DATA     BYTE      PWMDTY1
      0000009BH   SFRSYM    DATA     BYTE      P0PH
      000000B8H   SFRSYM    DATA     BYTE      IP
      000000D7H   SFRSYM    DATA     BYTE      PWMDTY2
      00000092H   SFRSYM    DATA     BYTE      P1PH
      00000098H.0 SFRSYM    DATA     BIT       RI
      000000DDH   SFRSYM    DATA     BYTE      PWMDTY3
      000000A2H   SFRSYM    DATA     BYTE      P2PH
      000000D0H.7 SFRSYM    DATA     BIT       CY
      000000DEH   SFRSYM    DATA     BYTE      PWMDTY4
      00000098H.1 SFRSYM    DATA     BIT       TI
      000000DFH   SFRSYM    DATA     BYTE      PWMDTY5
      000000B8H.1 SFRSYM    DATA     BIT       IPT0
      000000DAH   SFRSYM    DATA     BYTE      P5PH
      000000B8H.3 SFRSYM    DATA     BIT       IPT1
      000000B8H.5 SFRSYM    DATA     BIT       IPT2
      000000CBH   SFRSYM    DATA     BYTE      RCAP2H
      00000081H   SFRSYM    DATA     BYTE      SP
      000000D0H.2 SFRSYM    DATA     BIT       OV
      000000F4H   SFRSYM    DATA     BYTE      IAPADE
      000000CAH   SFRSYM    DATA     BYTE      RCAP2L
LX51 LINKER/LOCATER V4.66.87.0                                                        12/09/2024  11:33:43  PAGE 17


      0000009CH   SFRSYM    DATA     BYTE      P0VO
      000000EEH   SFRSYM    DATA     BYTE      EXBH
      000000F3H   SFRSYM    DATA     BYTE      IAPADH
      000000D4H   SFRSYM    DATA     BYTE      PWMDTYA
      000000DCH   SFRSYM    DATA     BYTE      PWMDTYB
      000000ADH   SFRSYM    DATA     BYTE      ADCCON
      000000EDH   SFRSYM    DATA     BYTE      EXBL
      000000C8H.5 SFRSYM    DATA     BIT       RCLK
      000000F2H   SFRSYM    DATA     BYTE      IAPADL
      000000C8H.4 SFRSYM    DATA     BIT       TCLK
      00000080H.0 SFRSYM    DATA     BIT       P00
      00000090H.0 SFRSYM    DATA     BIT       P10
      00000080H.1 SFRSYM    DATA     BIT       P01
      00000099H   SFRSYM    DATA     BYTE      SBUF
      00000087H   SFRSYM    DATA     BYTE      PCON
      000000A0H.0 SFRSYM    DATA     BIT       P20
      00000090H.1 SFRSYM    DATA     BIT       P11
      00000080H.2 SFRSYM    DATA     BIT       P02
      000000A0H.1 SFRSYM    DATA     BIT       P21
      00000090H.2 SFRSYM    DATA     BIT       P12
      00000080H.3 SFRSYM    DATA     BIT       P03
      000000A0H.2 SFRSYM    DATA     BIT       P22
      00000090H.3 SFRSYM    DATA     BIT       P13
      00000080H.4 SFRSYM    DATA     BIT       P04
      00000098H   SFRSYM    DATA     BYTE      SCON
      000000D8H.0 SFRSYM    DATA     BIT       P50
      000000A0H.3 SFRSYM    DATA     BIT       P23
      00000090H.4 SFRSYM    DATA     BIT       P14
      00000080H.5 SFRSYM    DATA     BIT       P05
      000000F5H   SFRSYM    DATA     BYTE      IAPDAT
      00000089H   SFRSYM    DATA     BYTE      TMOD
      00000088H   SFRSYM    DATA     BYTE      TCON
      000000D8H.1 SFRSYM    DATA     BIT       P51
      000000A0H.4 SFRSYM    DATA     BIT       P24
      00000090H.5 SFRSYM    DATA     BIT       P15
      00000080H.6 SFRSYM    DATA     BIT       P06
      000000B8H.0 SFRSYM    DATA     BIT       IPINT0
      000000A0H.5 SFRSYM    DATA     BIT       P25
      00000090H.6 SFRSYM    DATA     BIT       P16
      00000080H.7 SFRSYM    DATA     BIT       P07
      000000B8H.2 SFRSYM    DATA     BIT       IPINT1
      000000A0H.6 SFRSYM    DATA     BIT       P26
      00000090H.7 SFRSYM    DATA     BIT       P17
      0000009DH   SFRSYM    DATA     BYTE      SSCON0
      000000A0H.7 SFRSYM    DATA     BIT       P27
      0000009EH   SFRSYM    DATA     BYTE      SSCON1
      00000095H   SFRSYM    DATA     BYTE      SSCON2
      000000F6H   SFRSYM    DATA     BYTE      IAPCTL
      000000A9H   SFRSYM    DATA     BYTE      IE1
      000000F0H   SFRSYM    DATA     BYTE      B
      00000097H   SFRSYM    DATA     BYTE      IOHCON
      000000F1H   SFRSYM    DATA     BYTE      IAPKEY
      000000CEH   SFRSYM    DATA     BYTE      BTMCON
      000000D1H   SFRSYM    DATA     BYTE      PWMCFG
      000000E0H   SFRSYM    DATA     BYTE      ACC
      000000A8H.1 SFRSYM    DATA     BIT       ET0
      00000088H.5 SFRSYM    DATA     BIT       TF0
      000000A8H.3 SFRSYM    DATA     BIT       ET1
      000000ABH   SFRSYM    DATA     BYTE      ADCCFG0
      000000B9H   SFRSYM    DATA     BYTE      IP1
      00000088H.7 SFRSYM    DATA     BIT       TF1
      000000A8H.5 SFRSYM    DATA     BIT       ET2
      000000ACH   SFRSYM    DATA     BYTE      ADCCFG1
      00000098H.2 SFRSYM    DATA     BIT       RB8
      000000C8H.7 SFRSYM    DATA     BIT       TF2
LX51 LINKER/LOCATER V4.66.87.0                                                        12/09/2024  11:33:43  PAGE 18


      000000AAH   SFRSYM    DATA     BYTE      ADCCFG2
      0000008CH   SFRSYM    DATA     BYTE      TH0
      0000008DH   SFRSYM    DATA     BYTE      TH1
      00000098H.3 SFRSYM    DATA     BIT       TB8
      000000CDH   SFRSYM    DATA     BYTE      TH2
      000000D0H.0 SFRSYM    DATA     BIT       P
      00000098H.7 SFRSYM    DATA     BIT       SM0
      0000008AH   SFRSYM    DATA     BYTE      TL0
      00000098H.6 SFRSYM    DATA     BIT       SM1
      000000CFH   SFRSYM    DATA     BYTE      WDTCON
      0000008BH   SFRSYM    DATA     BYTE      TL1
      00000098H.5 SFRSYM    DATA     BIT       SM2
      000000CCH   SFRSYM    DATA     BYTE      TL2
      000000D0H.3 SFRSYM    DATA     BIT       RS0
      00000088H.4 SFRSYM    DATA     BIT       TR0
      000000D0H.4 SFRSYM    DATA     BIT       RS1
      000000D2H   SFRSYM    DATA     BYTE      PWMCON
      00000088H.6 SFRSYM    DATA     BIT       TR1
      000000B8H.4 SFRSYM    DATA     BIT       IPUART
      000000C8H.2 SFRSYM    DATA     BIT       TR2
      000000D3H   SFRSYM    DATA     BYTE      PWMPRD
      00000083H   SFRSYM    DATA     BYTE      DPH
      00000082H   SFRSYM    DATA     BYTE      DPL
      000000A8H.0 SFRSYM    DATA     BIT       EINT0
      0000009AH   SFRSYM    DATA     BYTE      P0CON
      000000A8H.2 SFRSYM    DATA     BIT       EINT1
      000000B8H.6 SFRSYM    DATA     BIT       IPADC
      000000BAH   SFRSYM    DATA     BYTE      INT0F
      00000091H   SFRSYM    DATA     BYTE      P1CON
      000000C8H.3 SFRSYM    DATA     BIT       EXEN2
      000000BCH   SFRSYM    DATA     BYTE      INT1F
      000000A1H   SFRSYM    DATA     BYTE      P2CON
      000000C6H   SFRSYM    DATA     BYTE      INT2F
      00000098H.4 SFRSYM    DATA     BIT       REN
      000000D9H   SFRSYM    DATA     BYTE      P5CON
      000000AFH   SFRSYM    DATA     BYTE      ADCVH
      000000C9H   SFRSYM    DATA     BYTE      T2MOD
      000000C8H   SFRSYM    DATA     BYTE      T2CON
      000000AEH   SFRSYM    DATA     BYTE      ADCVL
      000000F7H   SFRSYM    DATA     BYTE      EXADH
      000000BBH   SFRSYM    DATA     BYTE      INT0R
      000000BDH   SFRSYM    DATA     BYTE      INT1R
      000000C7H   SFRSYM    DATA     BYTE      INT2R
      000000D0H.5 SFRSYM    DATA     BIT       F0
      000000D0H.1 SFRSYM    DATA     BIT       F1
      000000D0H   SFRSYM    DATA     BYTE      PSW

      01001E25H   BLOCK     CODE     ---       LVL=0
      01001E25H   LINE      CODE     ---       #10
      01001E25H   LINE      CODE     ---       #11
      01001E25H   LINE      CODE     ---       #13
      01001E28H   LINE      CODE     ---       #14
      01001E2BH   LINE      CODE     ---       #15
      01001E2EH   LINE      CODE     ---       #16
      01001E31H   LINE      CODE     ---       #17
      01001E34H   LINE      CODE     ---       #18
      01001E45H   LINE      CODE     ---       #19
      01001E45H   LINE      CODE     ---       #20
      01001E45H   LINE      CODE     ---       #22
      01001E48H   LINE      CODE     ---       #24
      01001E4BH   LINE      CODE     ---       #25
      01001E4EH   LINE      CODE     ---       #26
      ---         BLOCKEND  ---      ---       LVL=0

      ---         MODULE    ---      ---       BTM
LX51 LINKER/LOCATER V4.66.87.0                                                        12/09/2024  11:33:43  PAGE 19


      01001FDDH   PUBLIC    CODE     ---       BTM_Int
      000000FFH   SFRSYM    DATA     BYTE      OPREG
      00000080H   SFRSYM    DATA     BYTE      P0
      0000009FH   SFRSYM    DATA     BYTE      SSDAT
      00000090H   SFRSYM    DATA     BYTE      P1
      000000A0H   SFRSYM    DATA     BYTE      P2
      000000A8H.4 SFRSYM    DATA     BIT       EUART
      0000008EH   SFRSYM    DATA     BYTE      TMCON
      000000D0H.6 SFRSYM    DATA     BIT       AC
      0000008FH   SFRSYM    DATA     BYTE      OTCON
      000000D8H   SFRSYM    DATA     BYTE      P5
      000000A8H.7 SFRSYM    DATA     BIT       EA
      000000C8H.1 SFRSYM    DATA     BIT       T2
      000000A8H.6 SFRSYM    DATA     BIT       EADC
      000000A8H   SFRSYM    DATA     BYTE      IE
      000000E9H   SFRSYM    DATA     BYTE      EXA0
      000000FEH   SFRSYM    DATA     BYTE      OPINX
      000000EAH   SFRSYM    DATA     BYTE      EXA1
      000000EBH   SFRSYM    DATA     BYTE      EXA2
      000000ECH   SFRSYM    DATA     BYTE      EXA3
      000000C8H.0 SFRSYM    DATA     BIT       CP
      000000C8H.6 SFRSYM    DATA     BIT       EXF2
      000000D5H   SFRSYM    DATA     BYTE      PWMDTY0
      000000EFH   SFRSYM    DATA     BYTE      OPERCON
      000000D6H   SFRSYM    DATA     BYTE      PWMDTY1
      0000009BH   SFRSYM    DATA     BYTE      P0PH
      000000B8H   SFRSYM    DATA     BYTE      IP
      000000D7H   SFRSYM    DATA     BYTE      PWMDTY2
      00000092H   SFRSYM    DATA     BYTE      P1PH
      00000098H.0 SFRSYM    DATA     BIT       RI
      000000DDH   SFRSYM    DATA     BYTE      PWMDTY3
      000000A2H   SFRSYM    DATA     BYTE      P2PH
      000000D0H.7 SFRSYM    DATA     BIT       CY
      000000DEH   SFRSYM    DATA     BYTE      PWMDTY4
      00000098H.1 SFRSYM    DATA     BIT       TI
      000000DFH   SFRSYM    DATA     BYTE      PWMDTY5
      000000B8H.1 SFRSYM    DATA     BIT       IPT0
      000000DAH   SFRSYM    DATA     BYTE      P5PH
      000000B8H.3 SFRSYM    DATA     BIT       IPT1
      000000B8H.5 SFRSYM    DATA     BIT       IPT2
      000000CBH   SFRSYM    DATA     BYTE      RCAP2H
      00000081H   SFRSYM    DATA     BYTE      SP
      000000D0H.2 SFRSYM    DATA     BIT       OV
      000000F4H   SFRSYM    DATA     BYTE      IAPADE
      000000CAH   SFRSYM    DATA     BYTE      RCAP2L
      0000009CH   SFRSYM    DATA     BYTE      P0VO
      000000EEH   SFRSYM    DATA     BYTE      EXBH
      000000F3H   SFRSYM    DATA     BYTE      IAPADH
      000000D4H   SFRSYM    DATA     BYTE      PWMDTYA
      000000DCH   SFRSYM    DATA     BYTE      PWMDTYB
      000000ADH   SFRSYM    DATA     BYTE      ADCCON
      000000EDH   SFRSYM    DATA     BYTE      EXBL
      000000C8H.5 SFRSYM    DATA     BIT       RCLK
      000000F2H   SFRSYM    DATA     BYTE      IAPADL
      000000C8H.4 SFRSYM    DATA     BIT       TCLK
      00000080H.0 SFRSYM    DATA     BIT       P00
      00000090H.0 SFRSYM    DATA     BIT       P10
      00000080H.1 SFRSYM    DATA     BIT       P01
      00000099H   SFRSYM    DATA     BYTE      SBUF
      00000087H   SFRSYM    DATA     BYTE      PCON
      000000A0H.0 SFRSYM    DATA     BIT       P20
      00000090H.1 SFRSYM    DATA     BIT       P11
      00000080H.2 SFRSYM    DATA     BIT       P02
      000000A0H.1 SFRSYM    DATA     BIT       P21
      00000090H.2 SFRSYM    DATA     BIT       P12
LX51 LINKER/LOCATER V4.66.87.0                                                        12/09/2024  11:33:43  PAGE 20


      00000080H.3 SFRSYM    DATA     BIT       P03
      000000A0H.2 SFRSYM    DATA     BIT       P22
      00000090H.3 SFRSYM    DATA     BIT       P13
      00000080H.4 SFRSYM    DATA     BIT       P04
      00000098H   SFRSYM    DATA     BYTE      SCON
      000000D8H.0 SFRSYM    DATA     BIT       P50
      000000A0H.3 SFRSYM    DATA     BIT       P23
      00000090H.4 SFRSYM    DATA     BIT       P14
      00000080H.5 SFRSYM    DATA     BIT       P05
      000000F5H   SFRSYM    DATA     BYTE      IAPDAT
      00000089H   SFRSYM    DATA     BYTE      TMOD
      00000088H   SFRSYM    DATA     BYTE      TCON
      000000D8H.1 SFRSYM    DATA     BIT       P51
      000000A0H.4 SFRSYM    DATA     BIT       P24
      00000090H.5 SFRSYM    DATA     BIT       P15
      00000080H.6 SFRSYM    DATA     BIT       P06
      000000B8H.0 SFRSYM    DATA     BIT       IPINT0
      000000A0H.5 SFRSYM    DATA     BIT       P25
      00000090H.6 SFRSYM    DATA     BIT       P16
      00000080H.7 SFRSYM    DATA     BIT       P07
      000000B8H.2 SFRSYM    DATA     BIT       IPINT1
      000000A0H.6 SFRSYM    DATA     BIT       P26
      00000090H.7 SFRSYM    DATA     BIT       P17
      0000009DH   SFRSYM    DATA     BYTE      SSCON0
      000000A0H.7 SFRSYM    DATA     BIT       P27
      0000009EH   SFRSYM    DATA     BYTE      SSCON1
      00000095H   SFRSYM    DATA     BYTE      SSCON2
      000000F6H   SFRSYM    DATA     BYTE      IAPCTL
      000000A9H   SFRSYM    DATA     BYTE      IE1
      000000F0H   SFRSYM    DATA     BYTE      B
      00000097H   SFRSYM    DATA     BYTE      IOHCON
      000000F1H   SFRSYM    DATA     BYTE      IAPKEY
      000000CEH   SFRSYM    DATA     BYTE      BTMCON
      000000D1H   SFRSYM    DATA     BYTE      PWMCFG
      000000E0H   SFRSYM    DATA     BYTE      ACC
      000000A8H.1 SFRSYM    DATA     BIT       ET0
      00000088H.5 SFRSYM    DATA     BIT       TF0
      000000A8H.3 SFRSYM    DATA     BIT       ET1
      000000ABH   SFRSYM    DATA     BYTE      ADCCFG0
      000000B9H   SFRSYM    DATA     BYTE      IP1
      00000088H.7 SFRSYM    DATA     BIT       TF1
      000000A8H.5 SFRSYM    DATA     BIT       ET2
      000000ACH   SFRSYM    DATA     BYTE      ADCCFG1
      00000098H.2 SFRSYM    DATA     BIT       RB8
      000000C8H.7 SFRSYM    DATA     BIT       TF2
      000000AAH   SFRSYM    DATA     BYTE      ADCCFG2
      0000008CH   SFRSYM    DATA     BYTE      TH0
      0000008DH   SFRSYM    DATA     BYTE      TH1
      00000098H.3 SFRSYM    DATA     BIT       TB8
      000000CDH   SFRSYM    DATA     BYTE      TH2
      000000D0H.0 SFRSYM    DATA     BIT       P
      00000098H.7 SFRSYM    DATA     BIT       SM0
      0000008AH   SFRSYM    DATA     BYTE      TL0
      00000098H.6 SFRSYM    DATA     BIT       SM1
      000000CFH   SFRSYM    DATA     BYTE      WDTCON
      0000008BH   SFRSYM    DATA     BYTE      TL1
      00000098H.5 SFRSYM    DATA     BIT       SM2
      000000CCH   SFRSYM    DATA     BYTE      TL2
      000000D0H.3 SFRSYM    DATA     BIT       RS0
      00000088H.4 SFRSYM    DATA     BIT       TR0
      000000D0H.4 SFRSYM    DATA     BIT       RS1
      000000D2H   SFRSYM    DATA     BYTE      PWMCON
      00000088H.6 SFRSYM    DATA     BIT       TR1
      000000B8H.4 SFRSYM    DATA     BIT       IPUART
      000000C8H.2 SFRSYM    DATA     BIT       TR2
LX51 LINKER/LOCATER V4.66.87.0                                                        12/09/2024  11:33:43  PAGE 21


      000000D3H   SFRSYM    DATA     BYTE      PWMPRD
      00000083H   SFRSYM    DATA     BYTE      DPH
      00000082H   SFRSYM    DATA     BYTE      DPL
      000000A8H.0 SFRSYM    DATA     BIT       EINT0
      0000009AH   SFRSYM    DATA     BYTE      P0CON
      000000A8H.2 SFRSYM    DATA     BIT       EINT1
      000000B8H.6 SFRSYM    DATA     BIT       IPADC
      000000BAH   SFRSYM    DATA     BYTE      INT0F
      00000091H   SFRSYM    DATA     BYTE      P1CON
      000000C8H.3 SFRSYM    DATA     BIT       EXEN2
      000000BCH   SFRSYM    DATA     BYTE      INT1F
      000000A1H   SFRSYM    DATA     BYTE      P2CON
      000000C6H   SFRSYM    DATA     BYTE      INT2F
      00000098H.4 SFRSYM    DATA     BIT       REN
      000000D9H   SFRSYM    DATA     BYTE      P5CON
      000000AFH   SFRSYM    DATA     BYTE      ADCVH
      000000C9H   SFRSYM    DATA     BYTE      T2MOD
      000000C8H   SFRSYM    DATA     BYTE      T2CON
      000000AEH   SFRSYM    DATA     BYTE      ADCVL
      000000F7H   SFRSYM    DATA     BYTE      EXADH
      000000BBH   SFRSYM    DATA     BYTE      INT0R
      000000BDH   SFRSYM    DATA     BYTE      INT1R
      000000C7H   SFRSYM    DATA     BYTE      INT2R
      000000D0H.5 SFRSYM    DATA     BIT       F0
      000000D0H.1 SFRSYM    DATA     BIT       F1
      000000D0H   SFRSYM    DATA     BYTE      PSW

      01001FDDH   BLOCK     CODE     ---       LVL=0
      01001FDDH   LINE      CODE     ---       #46
      01001FDFH   LINE      CODE     ---       #48
      01001FE4H   LINE      CODE     ---       #49
      01001FE4H   LINE      CODE     ---       #50
      01001FE6H   LINE      CODE     ---       #51
      01001FE6H   LINE      CODE     ---       #52
      ---         BLOCKEND  ---      ---       LVL=0

      ---         MODULE    ---      ---       EX_INIT
      020000FFH   PUBLIC    XDATA    BYTE      INT1_flag
      01000016H   PUBLIC    CODE     ---       EX2
      01001EECH   PUBLIC    CODE     ---       EX1
      0100000EH   PUBLIC    CODE     ---       EX0
      000000FFH   SFRSYM    DATA     BYTE      OPREG
      00000080H   SFRSYM    DATA     BYTE      P0
      0000009FH   SFRSYM    DATA     BYTE      SSDAT
      00000090H   SFRSYM    DATA     BYTE      P1
      000000A0H   SFRSYM    DATA     BYTE      P2
      000000A8H.4 SFRSYM    DATA     BIT       EUART
      0000008EH   SFRSYM    DATA     BYTE      TMCON
      000000D0H.6 SFRSYM    DATA     BIT       AC
      0000008FH   SFRSYM    DATA     BYTE      OTCON
      000000D8H   SFRSYM    DATA     BYTE      P5
      000000A8H.7 SFRSYM    DATA     BIT       EA
      000000C8H.1 SFRSYM    DATA     BIT       T2
      000000A8H.6 SFRSYM    DATA     BIT       EADC
      000000A8H   SFRSYM    DATA     BYTE      IE
      000000E9H   SFRSYM    DATA     BYTE      EXA0
      000000FEH   SFRSYM    DATA     BYTE      OPINX
      000000EAH   SFRSYM    DATA     BYTE      EXA1
      000000EBH   SFRSYM    DATA     BYTE      EXA2
      000000ECH   SFRSYM    DATA     BYTE      EXA3
      000000C8H.0 SFRSYM    DATA     BIT       CP
      000000C8H.6 SFRSYM    DATA     BIT       EXF2
      000000D5H   SFRSYM    DATA     BYTE      PWMDTY0
      000000EFH   SFRSYM    DATA     BYTE      OPERCON
      000000D6H   SFRSYM    DATA     BYTE      PWMDTY1
LX51 LINKER/LOCATER V4.66.87.0                                                        12/09/2024  11:33:43  PAGE 22


      0000009BH   SFRSYM    DATA     BYTE      P0PH
      000000B8H   SFRSYM    DATA     BYTE      IP
      000000D7H   SFRSYM    DATA     BYTE      PWMDTY2
      00000092H   SFRSYM    DATA     BYTE      P1PH
      00000098H.0 SFRSYM    DATA     BIT       RI
      000000DDH   SFRSYM    DATA     BYTE      PWMDTY3
      000000A2H   SFRSYM    DATA     BYTE      P2PH
      000000D0H.7 SFRSYM    DATA     BIT       CY
      000000DEH   SFRSYM    DATA     BYTE      PWMDTY4
      00000098H.1 SFRSYM    DATA     BIT       TI
      000000DFH   SFRSYM    DATA     BYTE      PWMDTY5
      000000B8H.1 SFRSYM    DATA     BIT       IPT0
      000000DAH   SFRSYM    DATA     BYTE      P5PH
      000000B8H.3 SFRSYM    DATA     BIT       IPT1
      000000B8H.5 SFRSYM    DATA     BIT       IPT2
      000000CBH   SFRSYM    DATA     BYTE      RCAP2H
      00000081H   SFRSYM    DATA     BYTE      SP
      000000D0H.2 SFRSYM    DATA     BIT       OV
      000000F4H   SFRSYM    DATA     BYTE      IAPADE
      000000CAH   SFRSYM    DATA     BYTE      RCAP2L
      0000009CH   SFRSYM    DATA     BYTE      P0VO
      000000EEH   SFRSYM    DATA     BYTE      EXBH
      000000F3H   SFRSYM    DATA     BYTE      IAPADH
      000000D4H   SFRSYM    DATA     BYTE      PWMDTYA
      000000DCH   SFRSYM    DATA     BYTE      PWMDTYB
      000000ADH   SFRSYM    DATA     BYTE      ADCCON
      000000EDH   SFRSYM    DATA     BYTE      EXBL
      000000C8H.5 SFRSYM    DATA     BIT       RCLK
      000000F2H   SFRSYM    DATA     BYTE      IAPADL
      000000C8H.4 SFRSYM    DATA     BIT       TCLK
      00000080H.0 SFRSYM    DATA     BIT       P00
      00000090H.0 SFRSYM    DATA     BIT       P10
      00000080H.1 SFRSYM    DATA     BIT       P01
      00000099H   SFRSYM    DATA     BYTE      SBUF
      00000087H   SFRSYM    DATA     BYTE      PCON
      000000A0H.0 SFRSYM    DATA     BIT       P20
      00000090H.1 SFRSYM    DATA     BIT       P11
      00000080H.2 SFRSYM    DATA     BIT       P02
      000000A0H.1 SFRSYM    DATA     BIT       P21
      00000090H.2 SFRSYM    DATA     BIT       P12
      00000080H.3 SFRSYM    DATA     BIT       P03
      000000A0H.2 SFRSYM    DATA     BIT       P22
      00000090H.3 SFRSYM    DATA     BIT       P13
      00000080H.4 SFRSYM    DATA     BIT       P04
      00000098H   SFRSYM    DATA     BYTE      SCON
      000000D8H.0 SFRSYM    DATA     BIT       P50
      000000A0H.3 SFRSYM    DATA     BIT       P23
      00000090H.4 SFRSYM    DATA     BIT       P14
      00000080H.5 SFRSYM    DATA     BIT       P05
      000000F5H   SFRSYM    DATA     BYTE      IAPDAT
      00000089H   SFRSYM    DATA     BYTE      TMOD
      00000088H   SFRSYM    DATA     BYTE      TCON
      000000D8H.1 SFRSYM    DATA     BIT       P51
      000000A0H.4 SFRSYM    DATA     BIT       P24
      00000090H.5 SFRSYM    DATA     BIT       P15
      00000080H.6 SFRSYM    DATA     BIT       P06
      000000B8H.0 SFRSYM    DATA     BIT       IPINT0
      000000A0H.5 SFRSYM    DATA     BIT       P25
      00000090H.6 SFRSYM    DATA     BIT       P16
      00000080H.7 SFRSYM    DATA     BIT       P07
      000000B8H.2 SFRSYM    DATA     BIT       IPINT1
      000000A0H.6 SFRSYM    DATA     BIT       P26
      00000090H.7 SFRSYM    DATA     BIT       P17
      0000009DH   SFRSYM    DATA     BYTE      SSCON0
      000000A0H.7 SFRSYM    DATA     BIT       P27
LX51 LINKER/LOCATER V4.66.87.0                                                        12/09/2024  11:33:43  PAGE 23


      0000009EH   SFRSYM    DATA     BYTE      SSCON1
      00000095H   SFRSYM    DATA     BYTE      SSCON2
      000000F6H   SFRSYM    DATA     BYTE      IAPCTL
      000000A9H   SFRSYM    DATA     BYTE      IE1
      000000F0H   SFRSYM    DATA     BYTE      B
      00000097H   SFRSYM    DATA     BYTE      IOHCON
      000000F1H   SFRSYM    DATA     BYTE      IAPKEY
      000000CEH   SFRSYM    DATA     BYTE      BTMCON
      000000D1H   SFRSYM    DATA     BYTE      PWMCFG
      000000E0H   SFRSYM    DATA     BYTE      ACC
      000000A8H.1 SFRSYM    DATA     BIT       ET0
      00000088H.5 SFRSYM    DATA     BIT       TF0
      000000A8H.3 SFRSYM    DATA     BIT       ET1
      000000ABH   SFRSYM    DATA     BYTE      ADCCFG0
      000000B9H   SFRSYM    DATA     BYTE      IP1
      00000088H.7 SFRSYM    DATA     BIT       TF1
      000000A8H.5 SFRSYM    DATA     BIT       ET2
      000000ACH   SFRSYM    DATA     BYTE      ADCCFG1
      00000098H.2 SFRSYM    DATA     BIT       RB8
      000000C8H.7 SFRSYM    DATA     BIT       TF2
      000000AAH   SFRSYM    DATA     BYTE      ADCCFG2
      0000008CH   SFRSYM    DATA     BYTE      TH0
      0000008DH   SFRSYM    DATA     BYTE      TH1
      00000098H.3 SFRSYM    DATA     BIT       TB8
      000000CDH   SFRSYM    DATA     BYTE      TH2
      000000D0H.0 SFRSYM    DATA     BIT       P
      00000098H.7 SFRSYM    DATA     BIT       SM0
      0000008AH   SFRSYM    DATA     BYTE      TL0
      00000098H.6 SFRSYM    DATA     BIT       SM1
      000000CFH   SFRSYM    DATA     BYTE      WDTCON
      0000008BH   SFRSYM    DATA     BYTE      TL1
      00000098H.5 SFRSYM    DATA     BIT       SM2
      000000CCH   SFRSYM    DATA     BYTE      TL2
      000000D0H.3 SFRSYM    DATA     BIT       RS0
      00000088H.4 SFRSYM    DATA     BIT       TR0
      000000D0H.4 SFRSYM    DATA     BIT       RS1
      000000D2H   SFRSYM    DATA     BYTE      PWMCON
      00000088H.6 SFRSYM    DATA     BIT       TR1
      000000B8H.4 SFRSYM    DATA     BIT       IPUART
      000000C8H.2 SFRSYM    DATA     BIT       TR2
      000000D3H   SFRSYM    DATA     BYTE      PWMPRD
      00000083H   SFRSYM    DATA     BYTE      DPH
      00000082H   SFRSYM    DATA     BYTE      DPL
      000000A8H.0 SFRSYM    DATA     BIT       EINT0
      0000009AH   SFRSYM    DATA     BYTE      P0CON
      000000A8H.2 SFRSYM    DATA     BIT       EINT1
      000000B8H.6 SFRSYM    DATA     BIT       IPADC
      000000BAH   SFRSYM    DATA     BYTE      INT0F
      00000091H   SFRSYM    DATA     BYTE      P1CON
      000000C8H.3 SFRSYM    DATA     BIT       EXEN2
      000000BCH   SFRSYM    DATA     BYTE      INT1F
      000000A1H   SFRSYM    DATA     BYTE      P2CON
      000000C6H   SFRSYM    DATA     BYTE      INT2F
      00000098H.4 SFRSYM    DATA     BIT       REN
      000000D9H   SFRSYM    DATA     BYTE      P5CON
      000000AFH   SFRSYM    DATA     BYTE      ADCVH
      000000C9H   SFRSYM    DATA     BYTE      T2MOD
      000000C8H   SFRSYM    DATA     BYTE      T2CON
      000000AEH   SFRSYM    DATA     BYTE      ADCVL
      000000F7H   SFRSYM    DATA     BYTE      EXADH
      000000BBH   SFRSYM    DATA     BYTE      INT0R
      000000BDH   SFRSYM    DATA     BYTE      INT1R
      000000C7H   SFRSYM    DATA     BYTE      INT2R
      000000D0H.5 SFRSYM    DATA     BIT       F0
      000000D0H.1 SFRSYM    DATA     BIT       F1
LX51 LINKER/LOCATER V4.66.87.0                                                        12/09/2024  11:33:43  PAGE 24


      000000D0H   SFRSYM    DATA     BYTE      PSW

      0100000EH   BLOCK     CODE     ---       LVL=0
      0100000EH   LINE      CODE     ---       #56
      0100000EH   LINE      CODE     ---       #58
      01000010H   LINE      CODE     ---       #59
      ---         BLOCKEND  ---      ---       LVL=0

      01001EECH   BLOCK     CODE     ---       LVL=0
      01001EECH   LINE      CODE     ---       #61
      01001EF2H   LINE      CODE     ---       #63
      01001EF4H   LINE      CODE     ---       #64
      01001EF7H   LINE      CODE     ---       #65
      01001EF7H   LINE      CODE     ---       #66
      01001EFDH   LINE      CODE     ---       #67
      01001EFDH   LINE      CODE     ---       #68
      01001F00H   LINE      CODE     ---       #69
      01001F00H   LINE      CODE     ---       #70
      01001F06H   LINE      CODE     ---       #71
      01001F06H   LINE      CODE     ---       #72
      ---         BLOCKEND  ---      ---       LVL=0

      01000016H   BLOCK     CODE     ---       LVL=0
      01000016H   LINE      CODE     ---       #74
      01000016H   LINE      CODE     ---       #76
      01000018H   LINE      CODE     ---       #77
      ---         BLOCKEND  ---      ---       LVL=0

      ---         MODULE    ---      ---       IAP_INIT
      020000E3H   PUBLIC    XDATA    ---       IapAddr
      020000E2H   PUBLIC    XDATA    BYTE      IapReadData
      000000FFH   SFRSYM    DATA     BYTE      OPREG
      00000080H   SFRSYM    DATA     BYTE      P0
      0000009FH   SFRSYM    DATA     BYTE      SSDAT
      00000090H   SFRSYM    DATA     BYTE      P1
      000000A0H   SFRSYM    DATA     BYTE      P2
      000000A8H.4 SFRSYM    DATA     BIT       EUART
      0000008EH   SFRSYM    DATA     BYTE      TMCON
      000000D0H.6 SFRSYM    DATA     BIT       AC
      0000008FH   SFRSYM    DATA     BYTE      OTCON
      000000D8H   SFRSYM    DATA     BYTE      P5
      000000A8H.7 SFRSYM    DATA     BIT       EA
      000000C8H.1 SFRSYM    DATA     BIT       T2
      000000A8H.6 SFRSYM    DATA     BIT       EADC
      000000A8H   SFRSYM    DATA     BYTE      IE
      000000E9H   SFRSYM    DATA     BYTE      EXA0
      000000FEH   SFRSYM    DATA     BYTE      OPINX
      000000EAH   SFRSYM    DATA     BYTE      EXA1
      000000EBH   SFRSYM    DATA     BYTE      EXA2
      000000ECH   SFRSYM    DATA     BYTE      EXA3
      000000C8H.0 SFRSYM    DATA     BIT       CP
      000000C8H.6 SFRSYM    DATA     BIT       EXF2
      000000D5H   SFRSYM    DATA     BYTE      PWMDTY0
      000000EFH   SFRSYM    DATA     BYTE      OPERCON
      000000D6H   SFRSYM    DATA     BYTE      PWMDTY1
      0000009BH   SFRSYM    DATA     BYTE      P0PH
      000000B8H   SFRSYM    DATA     BYTE      IP
      000000D7H   SFRSYM    DATA     BYTE      PWMDTY2
      00000092H   SFRSYM    DATA     BYTE      P1PH
      00000098H.0 SFRSYM    DATA     BIT       RI
      000000DDH   SFRSYM    DATA     BYTE      PWMDTY3
      000000A2H   SFRSYM    DATA     BYTE      P2PH
      000000D0H.7 SFRSYM    DATA     BIT       CY
      000000DEH   SFRSYM    DATA     BYTE      PWMDTY4
      00000098H.1 SFRSYM    DATA     BIT       TI
LX51 LINKER/LOCATER V4.66.87.0                                                        12/09/2024  11:33:43  PAGE 25


      000000DFH   SFRSYM    DATA     BYTE      PWMDTY5
      000000B8H.1 SFRSYM    DATA     BIT       IPT0
      000000DAH   SFRSYM    DATA     BYTE      P5PH
      000000B8H.3 SFRSYM    DATA     BIT       IPT1
      000000B8H.5 SFRSYM    DATA     BIT       IPT2
      000000CBH   SFRSYM    DATA     BYTE      RCAP2H
      00000081H   SFRSYM    DATA     BYTE      SP
      000000D0H.2 SFRSYM    DATA     BIT       OV
      000000F4H   SFRSYM    DATA     BYTE      IAPADE
      000000CAH   SFRSYM    DATA     BYTE      RCAP2L
      0000009CH   SFRSYM    DATA     BYTE      P0VO
      000000EEH   SFRSYM    DATA     BYTE      EXBH
      000000F3H   SFRSYM    DATA     BYTE      IAPADH
      000000D4H   SFRSYM    DATA     BYTE      PWMDTYA
      000000DCH   SFRSYM    DATA     BYTE      PWMDTYB
      000000ADH   SFRSYM    DATA     BYTE      ADCCON
      000000EDH   SFRSYM    DATA     BYTE      EXBL
      000000C8H.5 SFRSYM    DATA     BIT       RCLK
      000000F2H   SFRSYM    DATA     BYTE      IAPADL
      000000C8H.4 SFRSYM    DATA     BIT       TCLK
      00000080H.0 SFRSYM    DATA     BIT       P00
      00000090H.0 SFRSYM    DATA     BIT       P10
      00000080H.1 SFRSYM    DATA     BIT       P01
      00000099H   SFRSYM    DATA     BYTE      SBUF
      00000087H   SFRSYM    DATA     BYTE      PCON
      000000A0H.0 SFRSYM    DATA     BIT       P20
      00000090H.1 SFRSYM    DATA     BIT       P11
      00000080H.2 SFRSYM    DATA     BIT       P02
      000000A0H.1 SFRSYM    DATA     BIT       P21
      00000090H.2 SFRSYM    DATA     BIT       P12
      00000080H.3 SFRSYM    DATA     BIT       P03
      000000A0H.2 SFRSYM    DATA     BIT       P22
      00000090H.3 SFRSYM    DATA     BIT       P13
      00000080H.4 SFRSYM    DATA     BIT       P04
      00000098H   SFRSYM    DATA     BYTE      SCON
      000000D8H.0 SFRSYM    DATA     BIT       P50
      000000A0H.3 SFRSYM    DATA     BIT       P23
      00000090H.4 SFRSYM    DATA     BIT       P14
      00000080H.5 SFRSYM    DATA     BIT       P05
      000000F5H   SFRSYM    DATA     BYTE      IAPDAT
      00000089H   SFRSYM    DATA     BYTE      TMOD
      00000088H   SFRSYM    DATA     BYTE      TCON
      000000D8H.1 SFRSYM    DATA     BIT       P51
      000000A0H.4 SFRSYM    DATA     BIT       P24
      00000090H.5 SFRSYM    DATA     BIT       P15
      00000080H.6 SFRSYM    DATA     BIT       P06
      000000B8H.0 SFRSYM    DATA     BIT       IPINT0
      000000A0H.5 SFRSYM    DATA     BIT       P25
      00000090H.6 SFRSYM    DATA     BIT       P16
      00000080H.7 SFRSYM    DATA     BIT       P07
      000000B8H.2 SFRSYM    DATA     BIT       IPINT1
      000000A0H.6 SFRSYM    DATA     BIT       P26
      00000090H.7 SFRSYM    DATA     BIT       P17
      0000009DH   SFRSYM    DATA     BYTE      SSCON0
      000000A0H.7 SFRSYM    DATA     BIT       P27
      0000009EH   SFRSYM    DATA     BYTE      SSCON1
      00000095H   SFRSYM    DATA     BYTE      SSCON2
      000000F6H   SFRSYM    DATA     BYTE      IAPCTL
      000000A9H   SFRSYM    DATA     BYTE      IE1
      000000F0H   SFRSYM    DATA     BYTE      B
      00000097H   SFRSYM    DATA     BYTE      IOHCON
      000000F1H   SFRSYM    DATA     BYTE      IAPKEY
      000000CEH   SFRSYM    DATA     BYTE      BTMCON
      000000D1H   SFRSYM    DATA     BYTE      PWMCFG
      000000E0H   SFRSYM    DATA     BYTE      ACC
LX51 LINKER/LOCATER V4.66.87.0                                                        12/09/2024  11:33:43  PAGE 26


      000000A8H.1 SFRSYM    DATA     BIT       ET0
      00000088H.5 SFRSYM    DATA     BIT       TF0
      000000A8H.3 SFRSYM    DATA     BIT       ET1
      000000ABH   SFRSYM    DATA     BYTE      ADCCFG0
      000000B9H   SFRSYM    DATA     BYTE      IP1
      00000088H.7 SFRSYM    DATA     BIT       TF1
      000000A8H.5 SFRSYM    DATA     BIT       ET2
      000000ACH   SFRSYM    DATA     BYTE      ADCCFG1
      00000098H.2 SFRSYM    DATA     BIT       RB8
      000000C8H.7 SFRSYM    DATA     BIT       TF2
      000000AAH   SFRSYM    DATA     BYTE      ADCCFG2
      0000008CH   SFRSYM    DATA     BYTE      TH0
      0000008DH   SFRSYM    DATA     BYTE      TH1
      00000098H.3 SFRSYM    DATA     BIT       TB8
      000000CDH   SFRSYM    DATA     BYTE      TH2
      000000D0H.0 SFRSYM    DATA     BIT       P
      00000098H.7 SFRSYM    DATA     BIT       SM0
      0000008AH   SFRSYM    DATA     BYTE      TL0
      00000098H.6 SFRSYM    DATA     BIT       SM1
      000000CFH   SFRSYM    DATA     BYTE      WDTCON
      0000008BH   SFRSYM    DATA     BYTE      TL1
      00000098H.5 SFRSYM    DATA     BIT       SM2
      000000CCH   SFRSYM    DATA     BYTE      TL2
      000000D0H.3 SFRSYM    DATA     BIT       RS0
      00000088H.4 SFRSYM    DATA     BIT       TR0
      000000D0H.4 SFRSYM    DATA     BIT       RS1
      000000D2H   SFRSYM    DATA     BYTE      PWMCON
      00000088H.6 SFRSYM    DATA     BIT       TR1
      000000B8H.4 SFRSYM    DATA     BIT       IPUART
      000000C8H.2 SFRSYM    DATA     BIT       TR2
      000000D3H   SFRSYM    DATA     BYTE      PWMPRD
      00000083H   SFRSYM    DATA     BYTE      DPH
      00000082H   SFRSYM    DATA     BYTE      DPL
      000000A8H.0 SFRSYM    DATA     BIT       EINT0
      0000009AH   SFRSYM    DATA     BYTE      P0CON
      000000A8H.2 SFRSYM    DATA     BIT       EINT1
      000000B8H.6 SFRSYM    DATA     BIT       IPADC
      000000BAH   SFRSYM    DATA     BYTE      INT0F
      00000091H   SFRSYM    DATA     BYTE      P1CON
      000000C8H.3 SFRSYM    DATA     BIT       EXEN2
      000000BCH   SFRSYM    DATA     BYTE      INT1F
      000000A1H   SFRSYM    DATA     BYTE      P2CON
      000000C6H   SFRSYM    DATA     BYTE      INT2F
      00000098H.4 SFRSYM    DATA     BIT       REN
      000000D9H   SFRSYM    DATA     BYTE      P5CON
      000000AFH   SFRSYM    DATA     BYTE      ADCVH
      000000C9H   SFRSYM    DATA     BYTE      T2MOD
      000000C8H   SFRSYM    DATA     BYTE      T2CON
      000000AEH   SFRSYM    DATA     BYTE      ADCVL
      000000F7H   SFRSYM    DATA     BYTE      EXADH
      000000BBH   SFRSYM    DATA     BYTE      INT0R
      000000BDH   SFRSYM    DATA     BYTE      INT1R
      000000C7H   SFRSYM    DATA     BYTE      INT2R
      000000D0H.5 SFRSYM    DATA     BIT       F0
      000000D0H.1 SFRSYM    DATA     BIT       F1
      000000D0H   SFRSYM    DATA     BYTE      PSW
      020000BDH   SYMBOL    XDATA    WORD      Address
      020000BFH   SYMBOL    XDATA    BYTE      IAPArea
      020000C0H   SYMBOL    XDATA    WORD      x
      020000C6H   SYMBOL    XDATA    WORD      Addr
      020000C8H   SYMBOL    XDATA    BYTE      Value
      020000C9H   SYMBOL    XDATA    BYTE      IAPArea
      020000CAH   SYMBOL    XDATA    WORD      Addr
      020000CCH   SYMBOL    XDATA    BYTE      IAPArea
      020000CDH   SYMBOL    XDATA    BYTE      ReadValue
LX51 LINKER/LOCATER V4.66.87.0                                                        12/09/2024  11:33:43  PAGE 27



      ---         MODULE    ---      ---       IO_INIT
      01001EA2H   PUBLIC    CODE     ---       IO_Init
      000000FFH   SFRSYM    DATA     BYTE      OPREG
      00000080H   SFRSYM    DATA     BYTE      P0
      0000009FH   SFRSYM    DATA     BYTE      SSDAT
      00000090H   SFRSYM    DATA     BYTE      P1
      000000A0H   SFRSYM    DATA     BYTE      P2
      000000A8H.4 SFRSYM    DATA     BIT       EUART
      0000008EH   SFRSYM    DATA     BYTE      TMCON
      000000D0H.6 SFRSYM    DATA     BIT       AC
      0000008FH   SFRSYM    DATA     BYTE      OTCON
      000000D8H   SFRSYM    DATA     BYTE      P5
      000000A8H.7 SFRSYM    DATA     BIT       EA
      000000C8H.1 SFRSYM    DATA     BIT       T2
      000000A8H.6 SFRSYM    DATA     BIT       EADC
      000000A8H   SFRSYM    DATA     BYTE      IE
      000000E9H   SFRSYM    DATA     BYTE      EXA0
      000000FEH   SFRSYM    DATA     BYTE      OPINX
      000000EAH   SFRSYM    DATA     BYTE      EXA1
      000000EBH   SFRSYM    DATA     BYTE      EXA2
      000000ECH   SFRSYM    DATA     BYTE      EXA3
      000000C8H.0 SFRSYM    DATA     BIT       CP
      000000C8H.6 SFRSYM    DATA     BIT       EXF2
      000000D5H   SFRSYM    DATA     BYTE      PWMDTY0
      000000EFH   SFRSYM    DATA     BYTE      OPERCON
      000000D6H   SFRSYM    DATA     BYTE      PWMDTY1
      0000009BH   SFRSYM    DATA     BYTE      P0PH
      000000B8H   SFRSYM    DATA     BYTE      IP
      000000D7H   SFRSYM    DATA     BYTE      PWMDTY2
      00000092H   SFRSYM    DATA     BYTE      P1PH
      00000098H.0 SFRSYM    DATA     BIT       RI
      000000DDH   SFRSYM    DATA     BYTE      PWMDTY3
      000000A2H   SFRSYM    DATA     BYTE      P2PH
      000000D0H.7 SFRSYM    DATA     BIT       CY
      000000DEH   SFRSYM    DATA     BYTE      PWMDTY4
      00000098H.1 SFRSYM    DATA     BIT       TI
      000000DFH   SFRSYM    DATA     BYTE      PWMDTY5
      000000B8H.1 SFRSYM    DATA     BIT       IPT0
      000000DAH   SFRSYM    DATA     BYTE      P5PH
      000000B8H.3 SFRSYM    DATA     BIT       IPT1
      000000B8H.5 SFRSYM    DATA     BIT       IPT2
      000000CBH   SFRSYM    DATA     BYTE      RCAP2H
      00000081H   SFRSYM    DATA     BYTE      SP
      000000D0H.2 SFRSYM    DATA     BIT       OV
      000000F4H   SFRSYM    DATA     BYTE      IAPADE
      000000CAH   SFRSYM    DATA     BYTE      RCAP2L
      0000009CH   SFRSYM    DATA     BYTE      P0VO
      000000EEH   SFRSYM    DATA     BYTE      EXBH
      000000F3H   SFRSYM    DATA     BYTE      IAPADH
      000000D4H   SFRSYM    DATA     BYTE      PWMDTYA
      000000DCH   SFRSYM    DATA     BYTE      PWMDTYB
      000000ADH   SFRSYM    DATA     BYTE      ADCCON
      000000EDH   SFRSYM    DATA     BYTE      EXBL
      000000C8H.5 SFRSYM    DATA     BIT       RCLK
      000000F2H   SFRSYM    DATA     BYTE      IAPADL
      000000C8H.4 SFRSYM    DATA     BIT       TCLK
      00000080H.0 SFRSYM    DATA     BIT       P00
      00000090H.0 SFRSYM    DATA     BIT       P10
      00000080H.1 SFRSYM    DATA     BIT       P01
      00000099H   SFRSYM    DATA     BYTE      SBUF
      00000087H   SFRSYM    DATA     BYTE      PCON
      000000A0H.0 SFRSYM    DATA     BIT       P20
      00000090H.1 SFRSYM    DATA     BIT       P11
      00000080H.2 SFRSYM    DATA     BIT       P02
LX51 LINKER/LOCATER V4.66.87.0                                                        12/09/2024  11:33:43  PAGE 28


      000000A0H.1 SFRSYM    DATA     BIT       P21
      00000090H.2 SFRSYM    DATA     BIT       P12
      00000080H.3 SFRSYM    DATA     BIT       P03
      000000A0H.2 SFRSYM    DATA     BIT       P22
      00000090H.3 SFRSYM    DATA     BIT       P13
      00000080H.4 SFRSYM    DATA     BIT       P04
      00000098H   SFRSYM    DATA     BYTE      SCON
      000000D8H.0 SFRSYM    DATA     BIT       P50
      000000A0H.3 SFRSYM    DATA     BIT       P23
      00000090H.4 SFRSYM    DATA     BIT       P14
      00000080H.5 SFRSYM    DATA     BIT       P05
      000000F5H   SFRSYM    DATA     BYTE      IAPDAT
      00000089H   SFRSYM    DATA     BYTE      TMOD
      00000088H   SFRSYM    DATA     BYTE      TCON
      000000D8H.1 SFRSYM    DATA     BIT       P51
      000000A0H.4 SFRSYM    DATA     BIT       P24
      00000090H.5 SFRSYM    DATA     BIT       P15
      00000080H.6 SFRSYM    DATA     BIT       P06
      000000B8H.0 SFRSYM    DATA     BIT       IPINT0
      000000A0H.5 SFRSYM    DATA     BIT       P25
      00000090H.6 SFRSYM    DATA     BIT       P16
      00000080H.7 SFRSYM    DATA     BIT       P07
      000000B8H.2 SFRSYM    DATA     BIT       IPINT1
      000000A0H.6 SFRSYM    DATA     BIT       P26
      00000090H.7 SFRSYM    DATA     BIT       P17
      0000009DH   SFRSYM    DATA     BYTE      SSCON0
      000000A0H.7 SFRSYM    DATA     BIT       P27
      0000009EH   SFRSYM    DATA     BYTE      SSCON1
      00000095H   SFRSYM    DATA     BYTE      SSCON2
      000000F6H   SFRSYM    DATA     BYTE      IAPCTL
      000000A9H   SFRSYM    DATA     BYTE      IE1
      000000F0H   SFRSYM    DATA     BYTE      B
      00000097H   SFRSYM    DATA     BYTE      IOHCON
      000000F1H   SFRSYM    DATA     BYTE      IAPKEY
      000000CEH   SFRSYM    DATA     BYTE      BTMCON
      000000D1H   SFRSYM    DATA     BYTE      PWMCFG
      000000E0H   SFRSYM    DATA     BYTE      ACC
      000000A8H.1 SFRSYM    DATA     BIT       ET0
      00000088H.5 SFRSYM    DATA     BIT       TF0
      000000A8H.3 SFRSYM    DATA     BIT       ET1
      000000ABH   SFRSYM    DATA     BYTE      ADCCFG0
      000000B9H   SFRSYM    DATA     BYTE      IP1
      00000088H.7 SFRSYM    DATA     BIT       TF1
      000000A8H.5 SFRSYM    DATA     BIT       ET2
      000000ACH   SFRSYM    DATA     BYTE      ADCCFG1
      00000098H.2 SFRSYM    DATA     BIT       RB8
      000000C8H.7 SFRSYM    DATA     BIT       TF2
      000000AAH   SFRSYM    DATA     BYTE      ADCCFG2
      0000008CH   SFRSYM    DATA     BYTE      TH0
      0000008DH   SFRSYM    DATA     BYTE      TH1
      00000098H.3 SFRSYM    DATA     BIT       TB8
      000000CDH   SFRSYM    DATA     BYTE      TH2
      000000D0H.0 SFRSYM    DATA     BIT       P
      00000098H.7 SFRSYM    DATA     BIT       SM0
      0000008AH   SFRSYM    DATA     BYTE      TL0
      00000098H.6 SFRSYM    DATA     BIT       SM1
      000000CFH   SFRSYM    DATA     BYTE      WDTCON
      0000008BH   SFRSYM    DATA     BYTE      TL1
      00000098H.5 SFRSYM    DATA     BIT       SM2
      000000CCH   SFRSYM    DATA     BYTE      TL2
      000000D0H.3 SFRSYM    DATA     BIT       RS0
      00000088H.4 SFRSYM    DATA     BIT       TR0
      000000D0H.4 SFRSYM    DATA     BIT       RS1
      000000D2H   SFRSYM    DATA     BYTE      PWMCON
      00000088H.6 SFRSYM    DATA     BIT       TR1
LX51 LINKER/LOCATER V4.66.87.0                                                        12/09/2024  11:33:43  PAGE 29


      000000B8H.4 SFRSYM    DATA     BIT       IPUART
      000000C8H.2 SFRSYM    DATA     BIT       TR2
      000000D3H   SFRSYM    DATA     BYTE      PWMPRD
      00000083H   SFRSYM    DATA     BYTE      DPH
      00000082H   SFRSYM    DATA     BYTE      DPL
      000000A8H.0 SFRSYM    DATA     BIT       EINT0
      0000009AH   SFRSYM    DATA     BYTE      P0CON
      000000A8H.2 SFRSYM    DATA     BIT       EINT1
      000000B8H.6 SFRSYM    DATA     BIT       IPADC
      000000BAH   SFRSYM    DATA     BYTE      INT0F
      00000091H   SFRSYM    DATA     BYTE      P1CON
      000000C8H.3 SFRSYM    DATA     BIT       EXEN2
      000000BCH   SFRSYM    DATA     BYTE      INT1F
      000000A1H   SFRSYM    DATA     BYTE      P2CON
      000000C6H   SFRSYM    DATA     BYTE      INT2F
      00000098H.4 SFRSYM    DATA     BIT       REN
      000000D9H   SFRSYM    DATA     BYTE      P5CON
      000000AFH   SFRSYM    DATA     BYTE      ADCVH
      000000C9H   SFRSYM    DATA     BYTE      T2MOD
      000000C8H   SFRSYM    DATA     BYTE      T2CON
      000000AEH   SFRSYM    DATA     BYTE      ADCVL
      000000F7H   SFRSYM    DATA     BYTE      EXADH
      000000BBH   SFRSYM    DATA     BYTE      INT0R
      000000BDH   SFRSYM    DATA     BYTE      INT1R
      000000C7H   SFRSYM    DATA     BYTE      INT2R
      000000D0H.5 SFRSYM    DATA     BIT       F0
      000000D0H.1 SFRSYM    DATA     BIT       F1
      000000D0H   SFRSYM    DATA     BYTE      PSW

      01001EA2H   BLOCK     CODE     ---       LVL=0
      01001EA2H   LINE      CODE     ---       #8
      01001EA2H   LINE      CODE     ---       #9
      01001EA2H   LINE      CODE     ---       #34
      01001EA5H   LINE      CODE     ---       #35
      01001EA8H   LINE      CODE     ---       #36
      01001EABH   LINE      CODE     ---       #37
      01001EAEH   LINE      CODE     ---       #38
      01001EB1H   LINE      CODE     ---       #39
      01001EB4H   LINE      CODE     ---       #40
      01001EB7H   LINE      CODE     ---       #41
      01001EBAH   LINE      CODE     ---       #42
      01001EC6H   LINE      CODE     ---       #45
      ---         BLOCKEND  ---      ---       LVL=0

      ---         MODULE    ---      ---       LCD_INIT
      000000FFH   SFRSYM    DATA     BYTE      OPREG
      00000080H   SFRSYM    DATA     BYTE      P0
      0000009FH   SFRSYM    DATA     BYTE      SSDAT
      00000090H   SFRSYM    DATA     BYTE      P1
      000000A0H   SFRSYM    DATA     BYTE      P2
      000000A8H.4 SFRSYM    DATA     BIT       EUART
      0000008EH   SFRSYM    DATA     BYTE      TMCON
      000000D0H.6 SFRSYM    DATA     BIT       AC
      0000008FH   SFRSYM    DATA     BYTE      OTCON
      000000D8H   SFRSYM    DATA     BYTE      P5
      000000A8H.7 SFRSYM    DATA     BIT       EA
      000000C8H.1 SFRSYM    DATA     BIT       T2
      000000A8H.6 SFRSYM    DATA     BIT       EADC
      000000A8H   SFRSYM    DATA     BYTE      IE
      000000E9H   SFRSYM    DATA     BYTE      EXA0
      000000FEH   SFRSYM    DATA     BYTE      OPINX
      000000EAH   SFRSYM    DATA     BYTE      EXA1
      000000EBH   SFRSYM    DATA     BYTE      EXA2
      000000ECH   SFRSYM    DATA     BYTE      EXA3
      000000C8H.0 SFRSYM    DATA     BIT       CP
LX51 LINKER/LOCATER V4.66.87.0                                                        12/09/2024  11:33:43  PAGE 30


      000000C8H.6 SFRSYM    DATA     BIT       EXF2
      000000D5H   SFRSYM    DATA     BYTE      PWMDTY0
      000000EFH   SFRSYM    DATA     BYTE      OPERCON
      000000D6H   SFRSYM    DATA     BYTE      PWMDTY1
      0000009BH   SFRSYM    DATA     BYTE      P0PH
      000000B8H   SFRSYM    DATA     BYTE      IP
      000000D7H   SFRSYM    DATA     BYTE      PWMDTY2
      00000092H   SFRSYM    DATA     BYTE      P1PH
      00000098H.0 SFRSYM    DATA     BIT       RI
      000000DDH   SFRSYM    DATA     BYTE      PWMDTY3
      000000A2H   SFRSYM    DATA     BYTE      P2PH
      000000D0H.7 SFRSYM    DATA     BIT       CY
      000000DEH   SFRSYM    DATA     BYTE      PWMDTY4
      00000098H.1 SFRSYM    DATA     BIT       TI
      000000DFH   SFRSYM    DATA     BYTE      PWMDTY5
      000000B8H.1 SFRSYM    DATA     BIT       IPT0
      000000DAH   SFRSYM    DATA     BYTE      P5PH
      000000B8H.3 SFRSYM    DATA     BIT       IPT1
      000000B8H.5 SFRSYM    DATA     BIT       IPT2
      000000CBH   SFRSYM    DATA     BYTE      RCAP2H
      00000081H   SFRSYM    DATA     BYTE      SP
      000000D0H.2 SFRSYM    DATA     BIT       OV
      000000F4H   SFRSYM    DATA     BYTE      IAPADE
      000000CAH   SFRSYM    DATA     BYTE      RCAP2L
      0000009CH   SFRSYM    DATA     BYTE      P0VO
      000000EEH   SFRSYM    DATA     BYTE      EXBH
      000000F3H   SFRSYM    DATA     BYTE      IAPADH
      000000D4H   SFRSYM    DATA     BYTE      PWMDTYA
      000000DCH   SFRSYM    DATA     BYTE      PWMDTYB
      000000ADH   SFRSYM    DATA     BYTE      ADCCON
      000000EDH   SFRSYM    DATA     BYTE      EXBL
      000000C8H.5 SFRSYM    DATA     BIT       RCLK
      000000F2H   SFRSYM    DATA     BYTE      IAPADL
      000000C8H.4 SFRSYM    DATA     BIT       TCLK
      00000080H.0 SFRSYM    DATA     BIT       P00
      00000090H.0 SFRSYM    DATA     BIT       P10
      00000080H.1 SFRSYM    DATA     BIT       P01
      00000099H   SFRSYM    DATA     BYTE      SBUF
      00000087H   SFRSYM    DATA     BYTE      PCON
      000000A0H.0 SFRSYM    DATA     BIT       P20
      00000090H.1 SFRSYM    DATA     BIT       P11
      00000080H.2 SFRSYM    DATA     BIT       P02
      000000A0H.1 SFRSYM    DATA     BIT       P21
      00000090H.2 SFRSYM    DATA     BIT       P12
      00000080H.3 SFRSYM    DATA     BIT       P03
      000000A0H.2 SFRSYM    DATA     BIT       P22
      00000090H.3 SFRSYM    DATA     BIT       P13
      00000080H.4 SFRSYM    DATA     BIT       P04
      00000098H   SFRSYM    DATA     BYTE      SCON
      000000D8H.0 SFRSYM    DATA     BIT       P50
      000000A0H.3 SFRSYM    DATA     BIT       P23
      00000090H.4 SFRSYM    DATA     BIT       P14
      00000080H.5 SFRSYM    DATA     BIT       P05
      000000F5H   SFRSYM    DATA     BYTE      IAPDAT
      00000089H   SFRSYM    DATA     BYTE      TMOD
      00000088H   SFRSYM    DATA     BYTE      TCON
      000000D8H.1 SFRSYM    DATA     BIT       P51
      000000A0H.4 SFRSYM    DATA     BIT       P24
      00000090H.5 SFRSYM    DATA     BIT       P15
      00000080H.6 SFRSYM    DATA     BIT       P06
      000000B8H.0 SFRSYM    DATA     BIT       IPINT0
      000000A0H.5 SFRSYM    DATA     BIT       P25
      00000090H.6 SFRSYM    DATA     BIT       P16
      00000080H.7 SFRSYM    DATA     BIT       P07
      000000B8H.2 SFRSYM    DATA     BIT       IPINT1
LX51 LINKER/LOCATER V4.66.87.0                                                        12/09/2024  11:33:43  PAGE 31


      000000A0H.6 SFRSYM    DATA     BIT       P26
      00000090H.7 SFRSYM    DATA     BIT       P17
      0000009DH   SFRSYM    DATA     BYTE      SSCON0
      000000A0H.7 SFRSYM    DATA     BIT       P27
      0000009EH   SFRSYM    DATA     BYTE      SSCON1
      00000095H   SFRSYM    DATA     BYTE      SSCON2
      000000F6H   SFRSYM    DATA     BYTE      IAPCTL
      000000A9H   SFRSYM    DATA     BYTE      IE1
      000000F0H   SFRSYM    DATA     BYTE      B
      00000097H   SFRSYM    DATA     BYTE      IOHCON
      000000F1H   SFRSYM    DATA     BYTE      IAPKEY
      000000CEH   SFRSYM    DATA     BYTE      BTMCON
      000000D1H   SFRSYM    DATA     BYTE      PWMCFG
      000000E0H   SFRSYM    DATA     BYTE      ACC
      000000A8H.1 SFRSYM    DATA     BIT       ET0
      00000088H.5 SFRSYM    DATA     BIT       TF0
      000000A8H.3 SFRSYM    DATA     BIT       ET1
      000000ABH   SFRSYM    DATA     BYTE      ADCCFG0
      000000B9H   SFRSYM    DATA     BYTE      IP1
      00000088H.7 SFRSYM    DATA     BIT       TF1
      000000A8H.5 SFRSYM    DATA     BIT       ET2
      000000ACH   SFRSYM    DATA     BYTE      ADCCFG1
      00000098H.2 SFRSYM    DATA     BIT       RB8
      000000C8H.7 SFRSYM    DATA     BIT       TF2
      000000AAH   SFRSYM    DATA     BYTE      ADCCFG2
      0000008CH   SFRSYM    DATA     BYTE      TH0
      0000008DH   SFRSYM    DATA     BYTE      TH1
      00000098H.3 SFRSYM    DATA     BIT       TB8
      000000CDH   SFRSYM    DATA     BYTE      TH2
      000000D0H.0 SFRSYM    DATA     BIT       P
      00000098H.7 SFRSYM    DATA     BIT       SM0
      0000008AH   SFRSYM    DATA     BYTE      TL0
      00000098H.6 SFRSYM    DATA     BIT       SM1
      000000CFH   SFRSYM    DATA     BYTE      WDTCON
      0000008BH   SFRSYM    DATA     BYTE      TL1
      00000098H.5 SFRSYM    DATA     BIT       SM2
      000000CCH   SFRSYM    DATA     BYTE      TL2
      000000D0H.3 SFRSYM    DATA     BIT       RS0
      00000088H.4 SFRSYM    DATA     BIT       TR0
      000000D0H.4 SFRSYM    DATA     BIT       RS1
      000000D2H   SFRSYM    DATA     BYTE      PWMCON
      00000088H.6 SFRSYM    DATA     BIT       TR1
      000000B8H.4 SFRSYM    DATA     BIT       IPUART
      000000C8H.2 SFRSYM    DATA     BIT       TR2
      000000D3H   SFRSYM    DATA     BYTE      PWMPRD
      00000083H   SFRSYM    DATA     BYTE      DPH
      00000082H   SFRSYM    DATA     BYTE      DPL
      000000A8H.0 SFRSYM    DATA     BIT       EINT0
      0000009AH   SFRSYM    DATA     BYTE      P0CON
      000000A8H.2 SFRSYM    DATA     BIT       EINT1
      000000B8H.6 SFRSYM    DATA     BIT       IPADC
      000000BAH   SFRSYM    DATA     BYTE      INT0F
      00000091H   SFRSYM    DATA     BYTE      P1CON
      000000C8H.3 SFRSYM    DATA     BIT       EXEN2
      000000BCH   SFRSYM    DATA     BYTE      INT1F
      000000A1H   SFRSYM    DATA     BYTE      P2CON
      000000C6H   SFRSYM    DATA     BYTE      INT2F
      00000098H.4 SFRSYM    DATA     BIT       REN
      000000D9H   SFRSYM    DATA     BYTE      P5CON
      000000AFH   SFRSYM    DATA     BYTE      ADCVH
      000000C9H   SFRSYM    DATA     BYTE      T2MOD
      000000C8H   SFRSYM    DATA     BYTE      T2CON
      000000AEH   SFRSYM    DATA     BYTE      ADCVL
      000000F7H   SFRSYM    DATA     BYTE      EXADH
      000000BBH   SFRSYM    DATA     BYTE      INT0R
LX51 LINKER/LOCATER V4.66.87.0                                                        12/09/2024  11:33:43  PAGE 32


      000000BDH   SFRSYM    DATA     BYTE      INT1R
      000000C7H   SFRSYM    DATA     BYTE      INT2R
      000000D0H.5 SFRSYM    DATA     BIT       F0
      000000D0H.1 SFRSYM    DATA     BIT       F1
      000000D0H   SFRSYM    DATA     BYTE      PSW
      02000100H   SYMBOL    XDATA    BYTE      VDD_1_2
      020000CEH   SYMBOL    XDATA    WORD      time
      020000D0H   SYMBOL    XDATA    WORD      i

      ---         MODULE    ---      ---       MULTIPLICATION_DIVISION
      02000058H   PUBLIC    XDATA    WORD      remainder
      02000054H   PUBLIC    XDATA    ---       result
      02000050H   PUBLIC    XDATA    DWORD     product
      0200004CH   PUBLIC    XDATA    DWORD     quotient
      02000066H   PUBLIC    XDATA    BYTE      ?_Division?BYTE
      000000FFH   SFRSYM    DATA     BYTE      OPREG
      00000080H   SFRSYM    DATA     BYTE      P0
      0000009FH   SFRSYM    DATA     BYTE      SSDAT
      00000090H   SFRSYM    DATA     BYTE      P1
      000000A0H   SFRSYM    DATA     BYTE      P2
      000000A8H.4 SFRSYM    DATA     BIT       EUART
      0000008EH   SFRSYM    DATA     BYTE      TMCON
      000000D0H.6 SFRSYM    DATA     BIT       AC
      0000008FH   SFRSYM    DATA     BYTE      OTCON
      000000D8H   SFRSYM    DATA     BYTE      P5
      000000A8H.7 SFRSYM    DATA     BIT       EA
      000000C8H.1 SFRSYM    DATA     BIT       T2
      000000A8H.6 SFRSYM    DATA     BIT       EADC
      000000A8H   SFRSYM    DATA     BYTE      IE
      000000E9H   SFRSYM    DATA     BYTE      EXA0
      000000FEH   SFRSYM    DATA     BYTE      OPINX
      000000EAH   SFRSYM    DATA     BYTE      EXA1
      000000EBH   SFRSYM    DATA     BYTE      EXA2
      000000ECH   SFRSYM    DATA     BYTE      EXA3
      000000C8H.0 SFRSYM    DATA     BIT       CP
      000000C8H.6 SFRSYM    DATA     BIT       EXF2
      000000D5H   SFRSYM    DATA     BYTE      PWMDTY0
      000000EFH   SFRSYM    DATA     BYTE      OPERCON
      000000D6H   SFRSYM    DATA     BYTE      PWMDTY1
      0000009BH   SFRSYM    DATA     BYTE      P0PH
      000000B8H   SFRSYM    DATA     BYTE      IP
      000000D7H   SFRSYM    DATA     BYTE      PWMDTY2
      00000092H   SFRSYM    DATA     BYTE      P1PH
      00000098H.0 SFRSYM    DATA     BIT       RI
      000000DDH   SFRSYM    DATA     BYTE      PWMDTY3
      000000A2H   SFRSYM    DATA     BYTE      P2PH
      000000D0H.7 SFRSYM    DATA     BIT       CY
      000000DEH   SFRSYM    DATA     BYTE      PWMDTY4
      00000098H.1 SFRSYM    DATA     BIT       TI
      000000DFH   SFRSYM    DATA     BYTE      PWMDTY5
      000000B8H.1 SFRSYM    DATA     BIT       IPT0
      000000DAH   SFRSYM    DATA     BYTE      P5PH
      000000B8H.3 SFRSYM    DATA     BIT       IPT1
      000000B8H.5 SFRSYM    DATA     BIT       IPT2
      000000CBH   SFRSYM    DATA     BYTE      RCAP2H
      00000081H   SFRSYM    DATA     BYTE      SP
      000000D0H.2 SFRSYM    DATA     BIT       OV
      000000F4H   SFRSYM    DATA     BYTE      IAPADE
      000000CAH   SFRSYM    DATA     BYTE      RCAP2L
      0000009CH   SFRSYM    DATA     BYTE      P0VO
      000000EEH   SFRSYM    DATA     BYTE      EXBH
      000000F3H   SFRSYM    DATA     BYTE      IAPADH
      000000D4H   SFRSYM    DATA     BYTE      PWMDTYA
      000000DCH   SFRSYM    DATA     BYTE      PWMDTYB
      000000ADH   SFRSYM    DATA     BYTE      ADCCON
LX51 LINKER/LOCATER V4.66.87.0                                                        12/09/2024  11:33:43  PAGE 33


      000000EDH   SFRSYM    DATA     BYTE      EXBL
      000000C8H.5 SFRSYM    DATA     BIT       RCLK
      000000F2H   SFRSYM    DATA     BYTE      IAPADL
      000000C8H.4 SFRSYM    DATA     BIT       TCLK
      00000080H.0 SFRSYM    DATA     BIT       P00
      00000090H.0 SFRSYM    DATA     BIT       P10
      00000080H.1 SFRSYM    DATA     BIT       P01
      00000099H   SFRSYM    DATA     BYTE      SBUF
      00000087H   SFRSYM    DATA     BYTE      PCON
      000000A0H.0 SFRSYM    DATA     BIT       P20
      00000090H.1 SFRSYM    DATA     BIT       P11
      00000080H.2 SFRSYM    DATA     BIT       P02
      000000A0H.1 SFRSYM    DATA     BIT       P21
      00000090H.2 SFRSYM    DATA     BIT       P12
      00000080H.3 SFRSYM    DATA     BIT       P03
      000000A0H.2 SFRSYM    DATA     BIT       P22
      00000090H.3 SFRSYM    DATA     BIT       P13
      00000080H.4 SFRSYM    DATA     BIT       P04
      00000098H   SFRSYM    DATA     BYTE      SCON
      000000D8H.0 SFRSYM    DATA     BIT       P50
      000000A0H.3 SFRSYM    DATA     BIT       P23
      00000090H.4 SFRSYM    DATA     BIT       P14
      00000080H.5 SFRSYM    DATA     BIT       P05
      000000F5H   SFRSYM    DATA     BYTE      IAPDAT
      00000089H   SFRSYM    DATA     BYTE      TMOD
      00000088H   SFRSYM    DATA     BYTE      TCON
      000000D8H.1 SFRSYM    DATA     BIT       P51
      000000A0H.4 SFRSYM    DATA     BIT       P24
      00000090H.5 SFRSYM    DATA     BIT       P15
      00000080H.6 SFRSYM    DATA     BIT       P06
      000000B8H.0 SFRSYM    DATA     BIT       IPINT0
      000000A0H.5 SFRSYM    DATA     BIT       P25
      00000090H.6 SFRSYM    DATA     BIT       P16
      00000080H.7 SFRSYM    DATA     BIT       P07
      000000B8H.2 SFRSYM    DATA     BIT       IPINT1
      000000A0H.6 SFRSYM    DATA     BIT       P26
      00000090H.7 SFRSYM    DATA     BIT       P17
      0000009DH   SFRSYM    DATA     BYTE      SSCON0
      000000A0H.7 SFRSYM    DATA     BIT       P27
      0000009EH   SFRSYM    DATA     BYTE      SSCON1
      00000095H   SFRSYM    DATA     BYTE      SSCON2
      000000F6H   SFRSYM    DATA     BYTE      IAPCTL
      000000A9H   SFRSYM    DATA     BYTE      IE1
      000000F0H   SFRSYM    DATA     BYTE      B
      00000097H   SFRSYM    DATA     BYTE      IOHCON
      000000F1H   SFRSYM    DATA     BYTE      IAPKEY
      000000CEH   SFRSYM    DATA     BYTE      BTMCON
      000000D1H   SFRSYM    DATA     BYTE      PWMCFG
      000000E0H   SFRSYM    DATA     BYTE      ACC
      000000A8H.1 SFRSYM    DATA     BIT       ET0
      00000088H.5 SFRSYM    DATA     BIT       TF0
      000000A8H.3 SFRSYM    DATA     BIT       ET1
      000000ABH   SFRSYM    DATA     BYTE      ADCCFG0
      000000B9H   SFRSYM    DATA     BYTE      IP1
      00000088H.7 SFRSYM    DATA     BIT       TF1
      000000A8H.5 SFRSYM    DATA     BIT       ET2
      000000ACH   SFRSYM    DATA     BYTE      ADCCFG1
      00000098H.2 SFRSYM    DATA     BIT       RB8
      000000C8H.7 SFRSYM    DATA     BIT       TF2
      000000AAH   SFRSYM    DATA     BYTE      ADCCFG2
      0000008CH   SFRSYM    DATA     BYTE      TH0
      0000008DH   SFRSYM    DATA     BYTE      TH1
      00000098H.3 SFRSYM    DATA     BIT       TB8
      000000CDH   SFRSYM    DATA     BYTE      TH2
      000000D0H.0 SFRSYM    DATA     BIT       P
LX51 LINKER/LOCATER V4.66.87.0                                                        12/09/2024  11:33:43  PAGE 34


      00000098H.7 SFRSYM    DATA     BIT       SM0
      0000008AH   SFRSYM    DATA     BYTE      TL0
      00000098H.6 SFRSYM    DATA     BIT       SM1
      000000CFH   SFRSYM    DATA     BYTE      WDTCON
      0000008BH   SFRSYM    DATA     BYTE      TL1
      00000098H.5 SFRSYM    DATA     BIT       SM2
      000000CCH   SFRSYM    DATA     BYTE      TL2
      000000D0H.3 SFRSYM    DATA     BIT       RS0
      00000088H.4 SFRSYM    DATA     BIT       TR0
      000000D0H.4 SFRSYM    DATA     BIT       RS1
      000000D2H   SFRSYM    DATA     BYTE      PWMCON
      00000088H.6 SFRSYM    DATA     BIT       TR1
      000000B8H.4 SFRSYM    DATA     BIT       IPUART
      000000C8H.2 SFRSYM    DATA     BIT       TR2
      000000D3H   SFRSYM    DATA     BYTE      PWMPRD
      00000083H   SFRSYM    DATA     BYTE      DPH
      00000082H   SFRSYM    DATA     BYTE      DPL
      000000A8H.0 SFRSYM    DATA     BIT       EINT0
      0000009AH   SFRSYM    DATA     BYTE      P0CON
      000000A8H.2 SFRSYM    DATA     BIT       EINT1
      000000B8H.6 SFRSYM    DATA     BIT       IPADC
      000000BAH   SFRSYM    DATA     BYTE      INT0F
      00000091H   SFRSYM    DATA     BYTE      P1CON
      000000C8H.3 SFRSYM    DATA     BIT       EXEN2
      000000BCH   SFRSYM    DATA     BYTE      INT1F
      000000A1H   SFRSYM    DATA     BYTE      P2CON
      000000C6H   SFRSYM    DATA     BYTE      INT2F
      00000098H.4 SFRSYM    DATA     BIT       REN
      000000D9H   SFRSYM    DATA     BYTE      P5CON
      000000AFH   SFRSYM    DATA     BYTE      ADCVH
      000000C9H   SFRSYM    DATA     BYTE      T2MOD
      000000C8H   SFRSYM    DATA     BYTE      T2CON
      000000AEH   SFRSYM    DATA     BYTE      ADCVL
      000000F7H   SFRSYM    DATA     BYTE      EXADH
      000000BBH   SFRSYM    DATA     BYTE      INT0R
      000000BDH   SFRSYM    DATA     BYTE      INT1R
      000000C7H   SFRSYM    DATA     BYTE      INT2R
      000000D0H.5 SFRSYM    DATA     BIT       F0
      000000D0H.1 SFRSYM    DATA     BIT       F1
      000000D0H   SFRSYM    DATA     BYTE      PSW
      020000D2H   SYMBOL    XDATA    WORD      faciend
      020000D4H   SYMBOL    XDATA    WORD      Multiplier
      02000066H   SYMBOL    XDATA    DWORD     dividend
      0200006AH   SYMBOL    XDATA    WORD      divisor
      0200006CH   SYMBOL    XDATA    ---       temp

      ---         MODULE    ---      ---       PWM_INIT
      0100000AH   PUBLIC    CODE     ---       PWMInt
      01001E51H   PUBLIC    CODE     ---       PWM_Init
      000000FFH   SFRSYM    DATA     BYTE      OPREG
      00000080H   SFRSYM    DATA     BYTE      P0
      0000009FH   SFRSYM    DATA     BYTE      SSDAT
      00000090H   SFRSYM    DATA     BYTE      P1
      000000A0H   SFRSYM    DATA     BYTE      P2
      000000A8H.4 SFRSYM    DATA     BIT       EUART
      0000008EH   SFRSYM    DATA     BYTE      TMCON
      000000D0H.6 SFRSYM    DATA     BIT       AC
      0000008FH   SFRSYM    DATA     BYTE      OTCON
      000000D8H   SFRSYM    DATA     BYTE      P5
      000000A8H.7 SFRSYM    DATA     BIT       EA
      000000C8H.1 SFRSYM    DATA     BIT       T2
      000000A8H.6 SFRSYM    DATA     BIT       EADC
      000000A8H   SFRSYM    DATA     BYTE      IE
      000000E9H   SFRSYM    DATA     BYTE      EXA0
      000000FEH   SFRSYM    DATA     BYTE      OPINX
LX51 LINKER/LOCATER V4.66.87.0                                                        12/09/2024  11:33:43  PAGE 35


      000000EAH   SFRSYM    DATA     BYTE      EXA1
      000000EBH   SFRSYM    DATA     BYTE      EXA2
      000000ECH   SFRSYM    DATA     BYTE      EXA3
      000000C8H.0 SFRSYM    DATA     BIT       CP
      000000C8H.6 SFRSYM    DATA     BIT       EXF2
      000000D5H   SFRSYM    DATA     BYTE      PWMDTY0
      000000EFH   SFRSYM    DATA     BYTE      OPERCON
      000000D6H   SFRSYM    DATA     BYTE      PWMDTY1
      0000009BH   SFRSYM    DATA     BYTE      P0PH
      000000B8H   SFRSYM    DATA     BYTE      IP
      000000D7H   SFRSYM    DATA     BYTE      PWMDTY2
      00000092H   SFRSYM    DATA     BYTE      P1PH
      00000098H.0 SFRSYM    DATA     BIT       RI
      000000DDH   SFRSYM    DATA     BYTE      PWMDTY3
      000000A2H   SFRSYM    DATA     BYTE      P2PH
      000000D0H.7 SFRSYM    DATA     BIT       CY
      000000DEH   SFRSYM    DATA     BYTE      PWMDTY4
      00000098H.1 SFRSYM    DATA     BIT       TI
      000000DFH   SFRSYM    DATA     BYTE      PWMDTY5
      000000B8H.1 SFRSYM    DATA     BIT       IPT0
      000000DAH   SFRSYM    DATA     BYTE      P5PH
      000000B8H.3 SFRSYM    DATA     BIT       IPT1
      000000B8H.5 SFRSYM    DATA     BIT       IPT2
      000000CBH   SFRSYM    DATA     BYTE      RCAP2H
      00000081H   SFRSYM    DATA     BYTE      SP
      000000D0H.2 SFRSYM    DATA     BIT       OV
      000000F4H   SFRSYM    DATA     BYTE      IAPADE
      000000CAH   SFRSYM    DATA     BYTE      RCAP2L
      0000009CH   SFRSYM    DATA     BYTE      P0VO
      000000EEH   SFRSYM    DATA     BYTE      EXBH
      000000F3H   SFRSYM    DATA     BYTE      IAPADH
      000000D4H   SFRSYM    DATA     BYTE      PWMDTYA
      000000DCH   SFRSYM    DATA     BYTE      PWMDTYB
      000000ADH   SFRSYM    DATA     BYTE      ADCCON
      000000EDH   SFRSYM    DATA     BYTE      EXBL
      000000C8H.5 SFRSYM    DATA     BIT       RCLK
      000000F2H   SFRSYM    DATA     BYTE      IAPADL
      000000C8H.4 SFRSYM    DATA     BIT       TCLK
      00000080H.0 SFRSYM    DATA     BIT       P00
      00000090H.0 SFRSYM    DATA     BIT       P10
      00000080H.1 SFRSYM    DATA     BIT       P01
      00000099H   SFRSYM    DATA     BYTE      SBUF
      00000087H   SFRSYM    DATA     BYTE      PCON
      000000A0H.0 SFRSYM    DATA     BIT       P20
      00000090H.1 SFRSYM    DATA     BIT       P11
      00000080H.2 SFRSYM    DATA     BIT       P02
      000000A0H.1 SFRSYM    DATA     BIT       P21
      00000090H.2 SFRSYM    DATA     BIT       P12
      00000080H.3 SFRSYM    DATA     BIT       P03
      000000A0H.2 SFRSYM    DATA     BIT       P22
      00000090H.3 SFRSYM    DATA     BIT       P13
      00000080H.4 SFRSYM    DATA     BIT       P04
      00000098H   SFRSYM    DATA     BYTE      SCON
      000000D8H.0 SFRSYM    DATA     BIT       P50
      000000A0H.3 SFRSYM    DATA     BIT       P23
      00000090H.4 SFRSYM    DATA     BIT       P14
      00000080H.5 SFRSYM    DATA     BIT       P05
      000000F5H   SFRSYM    DATA     BYTE      IAPDAT
      00000089H   SFRSYM    DATA     BYTE      TMOD
      00000088H   SFRSYM    DATA     BYTE      TCON
      000000D8H.1 SFRSYM    DATA     BIT       P51
      000000A0H.4 SFRSYM    DATA     BIT       P24
      00000090H.5 SFRSYM    DATA     BIT       P15
      00000080H.6 SFRSYM    DATA     BIT       P06
      000000B8H.0 SFRSYM    DATA     BIT       IPINT0
LX51 LINKER/LOCATER V4.66.87.0                                                        12/09/2024  11:33:43  PAGE 36


      000000A0H.5 SFRSYM    DATA     BIT       P25
      00000090H.6 SFRSYM    DATA     BIT       P16
      00000080H.7 SFRSYM    DATA     BIT       P07
      000000B8H.2 SFRSYM    DATA     BIT       IPINT1
      000000A0H.6 SFRSYM    DATA     BIT       P26
      00000090H.7 SFRSYM    DATA     BIT       P17
      0000009DH   SFRSYM    DATA     BYTE      SSCON0
      000000A0H.7 SFRSYM    DATA     BIT       P27
      0000009EH   SFRSYM    DATA     BYTE      SSCON1
      00000095H   SFRSYM    DATA     BYTE      SSCON2
      000000F6H   SFRSYM    DATA     BYTE      IAPCTL
      000000A9H   SFRSYM    DATA     BYTE      IE1
      000000F0H   SFRSYM    DATA     BYTE      B
      00000097H   SFRSYM    DATA     BYTE      IOHCON
      000000F1H   SFRSYM    DATA     BYTE      IAPKEY
      000000CEH   SFRSYM    DATA     BYTE      BTMCON
      000000D1H   SFRSYM    DATA     BYTE      PWMCFG
      000000E0H   SFRSYM    DATA     BYTE      ACC
      000000A8H.1 SFRSYM    DATA     BIT       ET0
      00000088H.5 SFRSYM    DATA     BIT       TF0
      000000A8H.3 SFRSYM    DATA     BIT       ET1
      000000ABH   SFRSYM    DATA     BYTE      ADCCFG0
      000000B9H   SFRSYM    DATA     BYTE      IP1
      00000088H.7 SFRSYM    DATA     BIT       TF1
      000000A8H.5 SFRSYM    DATA     BIT       ET2
      000000ACH   SFRSYM    DATA     BYTE      ADCCFG1
      00000098H.2 SFRSYM    DATA     BIT       RB8
      000000C8H.7 SFRSYM    DATA     BIT       TF2
      000000AAH   SFRSYM    DATA     BYTE      ADCCFG2
      0000008CH   SFRSYM    DATA     BYTE      TH0
      0000008DH   SFRSYM    DATA     BYTE      TH1
      00000098H.3 SFRSYM    DATA     BIT       TB8
      000000CDH   SFRSYM    DATA     BYTE      TH2
      000000D0H.0 SFRSYM    DATA     BIT       P
      00000098H.7 SFRSYM    DATA     BIT       SM0
      0000008AH   SFRSYM    DATA     BYTE      TL0
      00000098H.6 SFRSYM    DATA     BIT       SM1
      000000CFH   SFRSYM    DATA     BYTE      WDTCON
      0000008BH   SFRSYM    DATA     BYTE      TL1
      00000098H.5 SFRSYM    DATA     BIT       SM2
      000000CCH   SFRSYM    DATA     BYTE      TL2
      000000D0H.3 SFRSYM    DATA     BIT       RS0
      00000088H.4 SFRSYM    DATA     BIT       TR0
      000000D0H.4 SFRSYM    DATA     BIT       RS1
      000000D2H   SFRSYM    DATA     BYTE      PWMCON
      00000088H.6 SFRSYM    DATA     BIT       TR1
      000000B8H.4 SFRSYM    DATA     BIT       IPUART
      000000C8H.2 SFRSYM    DATA     BIT       TR2
      000000D3H   SFRSYM    DATA     BYTE      PWMPRD
      00000083H   SFRSYM    DATA     BYTE      DPH
      00000082H   SFRSYM    DATA     BYTE      DPL
      000000A8H.0 SFRSYM    DATA     BIT       EINT0
      0000009AH   SFRSYM    DATA     BYTE      P0CON
      000000A8H.2 SFRSYM    DATA     BIT       EINT1
      000000B8H.6 SFRSYM    DATA     BIT       IPADC
      000000BAH   SFRSYM    DATA     BYTE      INT0F
      00000091H   SFRSYM    DATA     BYTE      P1CON
      000000C8H.3 SFRSYM    DATA     BIT       EXEN2
      000000BCH   SFRSYM    DATA     BYTE      INT1F
      000000A1H   SFRSYM    DATA     BYTE      P2CON
      000000C6H   SFRSYM    DATA     BYTE      INT2F
      00000098H.4 SFRSYM    DATA     BIT       REN
      000000D9H   SFRSYM    DATA     BYTE      P5CON
      000000AFH   SFRSYM    DATA     BYTE      ADCVH
      000000C9H   SFRSYM    DATA     BYTE      T2MOD
LX51 LINKER/LOCATER V4.66.87.0                                                        12/09/2024  11:33:43  PAGE 37


      000000C8H   SFRSYM    DATA     BYTE      T2CON
      000000AEH   SFRSYM    DATA     BYTE      ADCVL
      000000F7H   SFRSYM    DATA     BYTE      EXADH
      000000BBH   SFRSYM    DATA     BYTE      INT0R
      000000BDH   SFRSYM    DATA     BYTE      INT1R
      000000C7H   SFRSYM    DATA     BYTE      INT2R
      000000D0H.5 SFRSYM    DATA     BIT       F0
      000000D0H.1 SFRSYM    DATA     BIT       F1
      000000D0H   SFRSYM    DATA     BYTE      PSW

      01001E51H   BLOCK     CODE     ---       LVL=0
      01001E51H   LINE      CODE     ---       #26
      01001E51H   LINE      CODE     ---       #27
      01001E51H   LINE      CODE     ---       #28
      01001E54H   LINE      CODE     ---       #29
      01001E57H   LINE      CODE     ---       #30
      01001E5AH   LINE      CODE     ---       #31
      01001E5DH   LINE      CODE     ---       #32
      01001E60H   LINE      CODE     ---       #33
      01001E63H   LINE      CODE     ---       #34
      01001E66H   LINE      CODE     ---       #35
      01001E69H   LINE      CODE     ---       #36
      01001E6CH   LINE      CODE     ---       #37
      01001E6FH   LINE      CODE     ---       #38
      01001E72H   LINE      CODE     ---       #39
      01001E75H   LINE      CODE     ---       #40
      01001E78H   LINE      CODE     ---       #41
      01001E7AH   LINE      CODE     ---       #42
      ---         BLOCKEND  ---      ---       LVL=0

      0100000AH   BLOCK     CODE     ---       LVL=0
      0100000AH   LINE      CODE     ---       #62
      0100000AH   LINE      CODE     ---       #65
      ---         BLOCKEND  ---      ---       LVL=0

      ---         MODULE    ---      ---       SSI_INIT
      00000020H.6 PUBLIC    BIT      BIT       Uart1SendFlag
      02000017H   PUBLIC    XDATA    ---       g_comunicate_rb
      01001B0AH   PUBLIC    CODE     ---       Uart1_Int
      020000ABH   PUBLIC    XDATA    BYTE      ?_UART1_Init?BYTE
      010013D2H   PUBLIC    CODE     ---       _UART1_Init
      01001C43H   PUBLIC    CODE     ---       _UART_Sendstring
      000000FFH   SFRSYM    DATA     BYTE      OPREG
      00000080H   SFRSYM    DATA     BYTE      P0
      0000009FH   SFRSYM    DATA     BYTE      SSDAT
      00000090H   SFRSYM    DATA     BYTE      P1
      000000A0H   SFRSYM    DATA     BYTE      P2
      000000A8H.4 SFRSYM    DATA     BIT       EUART
      0000008EH   SFRSYM    DATA     BYTE      TMCON
      000000D0H.6 SFRSYM    DATA     BIT       AC
      0000008FH   SFRSYM    DATA     BYTE      OTCON
      000000D8H   SFRSYM    DATA     BYTE      P5
      000000A8H.7 SFRSYM    DATA     BIT       EA
      000000C8H.1 SFRSYM    DATA     BIT       T2
      000000A8H.6 SFRSYM    DATA     BIT       EADC
      000000A8H   SFRSYM    DATA     BYTE      IE
      000000E9H   SFRSYM    DATA     BYTE      EXA0
      000000FEH   SFRSYM    DATA     BYTE      OPINX
      000000EAH   SFRSYM    DATA     BYTE      EXA1
      000000EBH   SFRSYM    DATA     BYTE      EXA2
      000000ECH   SFRSYM    DATA     BYTE      EXA3
      000000C8H.0 SFRSYM    DATA     BIT       CP
      000000C8H.6 SFRSYM    DATA     BIT       EXF2
      000000D5H   SFRSYM    DATA     BYTE      PWMDTY0
      000000EFH   SFRSYM    DATA     BYTE      OPERCON
LX51 LINKER/LOCATER V4.66.87.0                                                        12/09/2024  11:33:43  PAGE 38


      000000D6H   SFRSYM    DATA     BYTE      PWMDTY1
      0000009BH   SFRSYM    DATA     BYTE      P0PH
      000000B8H   SFRSYM    DATA     BYTE      IP
      000000D7H   SFRSYM    DATA     BYTE      PWMDTY2
      00000092H   SFRSYM    DATA     BYTE      P1PH
      00000098H.0 SFRSYM    DATA     BIT       RI
      000000DDH   SFRSYM    DATA     BYTE      PWMDTY3
      000000A2H   SFRSYM    DATA     BYTE      P2PH
      000000D0H.7 SFRSYM    DATA     BIT       CY
      000000DEH   SFRSYM    DATA     BYTE      PWMDTY4
      00000098H.1 SFRSYM    DATA     BIT       TI
      000000DFH   SFRSYM    DATA     BYTE      PWMDTY5
      000000B8H.1 SFRSYM    DATA     BIT       IPT0
      000000DAH   SFRSYM    DATA     BYTE      P5PH
      000000B8H.3 SFRSYM    DATA     BIT       IPT1
      000000B8H.5 SFRSYM    DATA     BIT       IPT2
      000000CBH   SFRSYM    DATA     BYTE      RCAP2H
      00000081H   SFRSYM    DATA     BYTE      SP
      000000D0H.2 SFRSYM    DATA     BIT       OV
      000000F4H   SFRSYM    DATA     BYTE      IAPADE
      000000CAH   SFRSYM    DATA     BYTE      RCAP2L
      0000009CH   SFRSYM    DATA     BYTE      P0VO
      000000EEH   SFRSYM    DATA     BYTE      EXBH
      000000F3H   SFRSYM    DATA     BYTE      IAPADH
      000000D4H   SFRSYM    DATA     BYTE      PWMDTYA
      000000DCH   SFRSYM    DATA     BYTE      PWMDTYB
      000000ADH   SFRSYM    DATA     BYTE      ADCCON
      000000EDH   SFRSYM    DATA     BYTE      EXBL
      000000C8H.5 SFRSYM    DATA     BIT       RCLK
      000000F2H   SFRSYM    DATA     BYTE      IAPADL
      000000C8H.4 SFRSYM    DATA     BIT       TCLK
      00000080H.0 SFRSYM    DATA     BIT       P00
      00000090H.0 SFRSYM    DATA     BIT       P10
      00000080H.1 SFRSYM    DATA     BIT       P01
      00000099H   SFRSYM    DATA     BYTE      SBUF
      00000087H   SFRSYM    DATA     BYTE      PCON
      000000A0H.0 SFRSYM    DATA     BIT       P20
      00000090H.1 SFRSYM    DATA     BIT       P11
      00000080H.2 SFRSYM    DATA     BIT       P02
      000000A0H.1 SFRSYM    DATA     BIT       P21
      00000090H.2 SFRSYM    DATA     BIT       P12
      00000080H.3 SFRSYM    DATA     BIT       P03
      000000A0H.2 SFRSYM    DATA     BIT       P22
      00000090H.3 SFRSYM    DATA     BIT       P13
      00000080H.4 SFRSYM    DATA     BIT       P04
      00000098H   SFRSYM    DATA     BYTE      SCON
      000000D8H.0 SFRSYM    DATA     BIT       P50
      000000A0H.3 SFRSYM    DATA     BIT       P23
      00000090H.4 SFRSYM    DATA     BIT       P14
      00000080H.5 SFRSYM    DATA     BIT       P05
      000000F5H   SFRSYM    DATA     BYTE      IAPDAT
      00000089H   SFRSYM    DATA     BYTE      TMOD
      00000088H   SFRSYM    DATA     BYTE      TCON
      000000D8H.1 SFRSYM    DATA     BIT       P51
      000000A0H.4 SFRSYM    DATA     BIT       P24
      00000090H.5 SFRSYM    DATA     BIT       P15
      00000080H.6 SFRSYM    DATA     BIT       P06
      000000B8H.0 SFRSYM    DATA     BIT       IPINT0
      000000A0H.5 SFRSYM    DATA     BIT       P25
      00000090H.6 SFRSYM    DATA     BIT       P16
      00000080H.7 SFRSYM    DATA     BIT       P07
      000000B8H.2 SFRSYM    DATA     BIT       IPINT1
      000000A0H.6 SFRSYM    DATA     BIT       P26
      00000090H.7 SFRSYM    DATA     BIT       P17
      0000009DH   SFRSYM    DATA     BYTE      SSCON0
LX51 LINKER/LOCATER V4.66.87.0                                                        12/09/2024  11:33:43  PAGE 39


      000000A0H.7 SFRSYM    DATA     BIT       P27
      0000009EH   SFRSYM    DATA     BYTE      SSCON1
      00000095H   SFRSYM    DATA     BYTE      SSCON2
      000000F6H   SFRSYM    DATA     BYTE      IAPCTL
      000000A9H   SFRSYM    DATA     BYTE      IE1
      000000F0H   SFRSYM    DATA     BYTE      B
      00000097H   SFRSYM    DATA     BYTE      IOHCON
      000000F1H   SFRSYM    DATA     BYTE      IAPKEY
      000000CEH   SFRSYM    DATA     BYTE      BTMCON
      000000D1H   SFRSYM    DATA     BYTE      PWMCFG
      000000E0H   SFRSYM    DATA     BYTE      ACC
      000000A8H.1 SFRSYM    DATA     BIT       ET0
      00000088H.5 SFRSYM    DATA     BIT       TF0
      000000A8H.3 SFRSYM    DATA     BIT       ET1
      000000ABH   SFRSYM    DATA     BYTE      ADCCFG0
      000000B9H   SFRSYM    DATA     BYTE      IP1
      00000088H.7 SFRSYM    DATA     BIT       TF1
      000000A8H.5 SFRSYM    DATA     BIT       ET2
      000000ACH   SFRSYM    DATA     BYTE      ADCCFG1
      00000098H.2 SFRSYM    DATA     BIT       RB8
      000000C8H.7 SFRSYM    DATA     BIT       TF2
      000000AAH   SFRSYM    DATA     BYTE      ADCCFG2
      0000008CH   SFRSYM    DATA     BYTE      TH0
      0000008DH   SFRSYM    DATA     BYTE      TH1
      00000098H.3 SFRSYM    DATA     BIT       TB8
      000000CDH   SFRSYM    DATA     BYTE      TH2
      000000D0H.0 SFRSYM    DATA     BIT       P
      00000098H.7 SFRSYM    DATA     BIT       SM0
      0000008AH   SFRSYM    DATA     BYTE      TL0
      00000098H.6 SFRSYM    DATA     BIT       SM1
      000000CFH   SFRSYM    DATA     BYTE      WDTCON
      0000008BH   SFRSYM    DATA     BYTE      TL1
      00000098H.5 SFRSYM    DATA     BIT       SM2
      000000CCH   SFRSYM    DATA     BYTE      TL2
      000000D0H.3 SFRSYM    DATA     BIT       RS0
      00000088H.4 SFRSYM    DATA     BIT       TR0
      000000D0H.4 SFRSYM    DATA     BIT       RS1
      000000D2H   SFRSYM    DATA     BYTE      PWMCON
      00000088H.6 SFRSYM    DATA     BIT       TR1
      000000B8H.4 SFRSYM    DATA     BIT       IPUART
      000000C8H.2 SFRSYM    DATA     BIT       TR2
      000000D3H   SFRSYM    DATA     BYTE      PWMPRD
      00000083H   SFRSYM    DATA     BYTE      DPH
      00000082H   SFRSYM    DATA     BYTE      DPL
      000000A8H.0 SFRSYM    DATA     BIT       EINT0
      0000009AH   SFRSYM    DATA     BYTE      P0CON
      000000A8H.2 SFRSYM    DATA     BIT       EINT1
      000000B8H.6 SFRSYM    DATA     BIT       IPADC
      000000BAH   SFRSYM    DATA     BYTE      INT0F
      00000091H   SFRSYM    DATA     BYTE      P1CON
      000000C8H.3 SFRSYM    DATA     BIT       EXEN2
      000000BCH   SFRSYM    DATA     BYTE      INT1F
      000000A1H   SFRSYM    DATA     BYTE      P2CON
      000000C6H   SFRSYM    DATA     BYTE      INT2F
      00000098H.4 SFRSYM    DATA     BIT       REN
      000000D9H   SFRSYM    DATA     BYTE      P5CON
      000000AFH   SFRSYM    DATA     BYTE      ADCVH
      000000C9H   SFRSYM    DATA     BYTE      T2MOD
      000000C8H   SFRSYM    DATA     BYTE      T2CON
      000000AEH   SFRSYM    DATA     BYTE      ADCVL
      000000F7H   SFRSYM    DATA     BYTE      EXADH
      000000BBH   SFRSYM    DATA     BYTE      INT0R
      000000BDH   SFRSYM    DATA     BYTE      INT1R
      000000C7H   SFRSYM    DATA     BYTE      INT2R
      000000D0H.5 SFRSYM    DATA     BIT       F0
LX51 LINKER/LOCATER V4.66.87.0                                                        12/09/2024  11:33:43  PAGE 40


      000000D0H.1 SFRSYM    DATA     BIT       F1
      000000D0H   SFRSYM    DATA     BYTE      PSW
      02000022H   SYMBOL    XDATA    ---       g_rb_buffer

      01001C43H   BLOCK     CODE     ---       LVL=0
      020000D6H   SYMBOL    XDATA    ---       str
      01001C4EH   BLOCK     CODE     NEAR LAB  LVL=1
      020000D9H   SYMBOL    XDATA    BYTE      i
      ---         BLOCKEND  ---      ---       LVL=1
      01001C43H   LINE      CODE     ---       #11
      01001C4EH   LINE      CODE     ---       #12
      01001C4EH   LINE      CODE     ---       #14
      01001C5EH   LINE      CODE     ---       #15
      01001C5EH   LINE      CODE     ---       #16
      01001C79H   LINE      CODE     ---       #17
      01001C7CH   LINE      CODE     ---       #18
      01001C7EH   LINE      CODE     ---       #19
      01001C86H   LINE      CODE     ---       #20
      ---         BLOCKEND  ---      ---       LVL=0

      010013D2H   BLOCK     CODE     ---       LVL=0
      020000ABH   SYMBOL    XDATA    WORD      Freq
      020000ADH   SYMBOL    XDATA    DWORD     baud
      010013D2H   LINE      CODE     ---       #28
      010013DAH   LINE      CODE     ---       #29
      010013DAH   LINE      CODE     ---       #30
      010013DDH   LINE      CODE     ---       #31
      010013E0H   LINE      CODE     ---       #33
      010013E3H   LINE      CODE     ---       #34
      010013E6H   LINE      CODE     ---       #35
      0100140FH   LINE      CODE     ---       #36
      0100143DH   LINE      CODE     ---       #37
      01001440H   LINE      CODE     ---       #38
      01001442H   LINE      CODE     ---       #39
      0100146CH   LINE      CODE     ---       #41
      ---         BLOCKEND  ---      ---       LVL=0

      01001B0AH   BLOCK     CODE     ---       LVL=0
      01001B0AH   LINE      CODE     ---       #49
      01001B27H   LINE      CODE     ---       #52
      01001B2CH   LINE      CODE     ---       #53
      01001B2CH   LINE      CODE     ---       #54
      01001B2FH   LINE      CODE     ---       #55
      01001B31H   LINE      CODE     ---       #56
      01001B31H   LINE      CODE     ---       #57
      01001B36H   LINE      CODE     ---       #58
      01001B36H   LINE      CODE     ---       #59
      01001B39H   LINE      CODE     ---       #61
      01001B44H   LINE      CODE     ---       #62
      01001B44H   LINE      CODE     ---       #63
      ---         BLOCKEND  ---      ---       LVL=0

      ---         MODULE    ---      ---       TIMER_INIT
      0200004BH   PUBLIC    XDATA    BYTE      g_flag_1ms
      0200004AH   PUBLIC    XDATA    BYTE      g_flag_200ms
      02000049H   PUBLIC    XDATA    BYTE      pwm1_duty
      02000048H   PUBLIC    XDATA    BYTE      g_flag_ms
      00000020H.7 PUBLIC    BIT      BIT       flag
      02000046H   PUBLIC    XDATA    INT       l_1ms_cnt
      02000042H   PUBLIC    XDATA    DWORD     g_1ms_cnt
      01001D44H   PUBLIC    CODE     ---       PWMDTY1_Set
      01001507H   PUBLIC    CODE     ---       Timer2Int
      01001F2DH   PUBLIC    CODE     ---       _is_ms_tick
      01001F0DH   PUBLIC    CODE     ---       _is_200ms_tick
      0100001EH   PUBLIC    CODE     ---       timer1
LX51 LINKER/LOCATER V4.66.87.0                                                        12/09/2024  11:33:43  PAGE 41


      01001282H   PUBLIC    CODE     ---       timer0
      01001E7BH   PUBLIC    CODE     ---       Timer_Init
      01000006H   PUBLIC    CODE     ---       Timer_Test
      000000FFH   SFRSYM    DATA     BYTE      OPREG
      00000080H   SFRSYM    DATA     BYTE      P0
      0000009FH   SFRSYM    DATA     BYTE      SSDAT
      00000090H   SFRSYM    DATA     BYTE      P1
      000000A0H   SFRSYM    DATA     BYTE      P2
      000000A8H.4 SFRSYM    DATA     BIT       EUART
      0000008EH   SFRSYM    DATA     BYTE      TMCON
      000000D0H.6 SFRSYM    DATA     BIT       AC
      0000008FH   SFRSYM    DATA     BYTE      OTCON
      000000D8H   SFRSYM    DATA     BYTE      P5
      000000A8H.7 SFRSYM    DATA     BIT       EA
      000000C8H.1 SFRSYM    DATA     BIT       T2
      000000A8H.6 SFRSYM    DATA     BIT       EADC
      000000A8H   SFRSYM    DATA     BYTE      IE
      000000E9H   SFRSYM    DATA     BYTE      EXA0
      000000FEH   SFRSYM    DATA     BYTE      OPINX
      000000EAH   SFRSYM    DATA     BYTE      EXA1
      000000EBH   SFRSYM    DATA     BYTE      EXA2
      000000ECH   SFRSYM    DATA     BYTE      EXA3
      000000C8H.0 SFRSYM    DATA     BIT       CP
      000000C8H.6 SFRSYM    DATA     BIT       EXF2
      000000D5H   SFRSYM    DATA     BYTE      PWMDTY0
      000000EFH   SFRSYM    DATA     BYTE      OPERCON
      000000D6H   SFRSYM    DATA     BYTE      PWMDTY1
      0000009BH   SFRSYM    DATA     BYTE      P0PH
      000000B8H   SFRSYM    DATA     BYTE      IP
      000000D7H   SFRSYM    DATA     BYTE      PWMDTY2
      00000092H   SFRSYM    DATA     BYTE      P1PH
      00000098H.0 SFRSYM    DATA     BIT       RI
      000000DDH   SFRSYM    DATA     BYTE      PWMDTY3
      000000A2H   SFRSYM    DATA     BYTE      P2PH
      000000D0H.7 SFRSYM    DATA     BIT       CY
      000000DEH   SFRSYM    DATA     BYTE      PWMDTY4
      00000098H.1 SFRSYM    DATA     BIT       TI
      000000DFH   SFRSYM    DATA     BYTE      PWMDTY5
      000000B8H.1 SFRSYM    DATA     BIT       IPT0
      000000DAH   SFRSYM    DATA     BYTE      P5PH
      000000B8H.3 SFRSYM    DATA     BIT       IPT1
      000000B8H.5 SFRSYM    DATA     BIT       IPT2
      000000CBH   SFRSYM    DATA     BYTE      RCAP2H
      00000081H   SFRSYM    DATA     BYTE      SP
      000000D0H.2 SFRSYM    DATA     BIT       OV
      000000F4H   SFRSYM    DATA     BYTE      IAPADE
      000000CAH   SFRSYM    DATA     BYTE      RCAP2L
      0000009CH   SFRSYM    DATA     BYTE      P0VO
      000000EEH   SFRSYM    DATA     BYTE      EXBH
      000000F3H   SFRSYM    DATA     BYTE      IAPADH
      000000D4H   SFRSYM    DATA     BYTE      PWMDTYA
      000000DCH   SFRSYM    DATA     BYTE      PWMDTYB
      000000ADH   SFRSYM    DATA     BYTE      ADCCON
      000000EDH   SFRSYM    DATA     BYTE      EXBL
      000000C8H.5 SFRSYM    DATA     BIT       RCLK
      000000F2H   SFRSYM    DATA     BYTE      IAPADL
      000000C8H.4 SFRSYM    DATA     BIT       TCLK
      00000080H.0 SFRSYM    DATA     BIT       P00
      00000090H.0 SFRSYM    DATA     BIT       P10
      00000080H.1 SFRSYM    DATA     BIT       P01
      00000099H   SFRSYM    DATA     BYTE      SBUF
      00000087H   SFRSYM    DATA     BYTE      PCON
      000000A0H.0 SFRSYM    DATA     BIT       P20
      00000090H.1 SFRSYM    DATA     BIT       P11
      00000080H.2 SFRSYM    DATA     BIT       P02
LX51 LINKER/LOCATER V4.66.87.0                                                        12/09/2024  11:33:43  PAGE 42


      000000A0H.1 SFRSYM    DATA     BIT       P21
      00000090H.2 SFRSYM    DATA     BIT       P12
      00000080H.3 SFRSYM    DATA     BIT       P03
      000000A0H.2 SFRSYM    DATA     BIT       P22
      00000090H.3 SFRSYM    DATA     BIT       P13
      00000080H.4 SFRSYM    DATA     BIT       P04
      00000098H   SFRSYM    DATA     BYTE      SCON
      000000D8H.0 SFRSYM    DATA     BIT       P50
      000000A0H.3 SFRSYM    DATA     BIT       P23
      00000090H.4 SFRSYM    DATA     BIT       P14
      00000080H.5 SFRSYM    DATA     BIT       P05
      000000F5H   SFRSYM    DATA     BYTE      IAPDAT
      00000089H   SFRSYM    DATA     BYTE      TMOD
      00000088H   SFRSYM    DATA     BYTE      TCON
      000000D8H.1 SFRSYM    DATA     BIT       P51
      000000A0H.4 SFRSYM    DATA     BIT       P24
      00000090H.5 SFRSYM    DATA     BIT       P15
      00000080H.6 SFRSYM    DATA     BIT       P06
      000000B8H.0 SFRSYM    DATA     BIT       IPINT0
      000000A0H.5 SFRSYM    DATA     BIT       P25
      00000090H.6 SFRSYM    DATA     BIT       P16
      00000080H.7 SFRSYM    DATA     BIT       P07
      000000B8H.2 SFRSYM    DATA     BIT       IPINT1
      000000A0H.6 SFRSYM    DATA     BIT       P26
      00000090H.7 SFRSYM    DATA     BIT       P17
      0000009DH   SFRSYM    DATA     BYTE      SSCON0
      000000A0H.7 SFRSYM    DATA     BIT       P27
      0000009EH   SFRSYM    DATA     BYTE      SSCON1
      00000095H   SFRSYM    DATA     BYTE      SSCON2
      000000F6H   SFRSYM    DATA     BYTE      IAPCTL
      000000A9H   SFRSYM    DATA     BYTE      IE1
      000000F0H   SFRSYM    DATA     BYTE      B
      00000097H   SFRSYM    DATA     BYTE      IOHCON
      000000F1H   SFRSYM    DATA     BYTE      IAPKEY
      000000CEH   SFRSYM    DATA     BYTE      BTMCON
      000000D1H   SFRSYM    DATA     BYTE      PWMCFG
      000000E0H   SFRSYM    DATA     BYTE      ACC
      000000A8H.1 SFRSYM    DATA     BIT       ET0
      00000088H.5 SFRSYM    DATA     BIT       TF0
      000000A8H.3 SFRSYM    DATA     BIT       ET1
      000000ABH   SFRSYM    DATA     BYTE      ADCCFG0
      000000B9H   SFRSYM    DATA     BYTE      IP1
      00000088H.7 SFRSYM    DATA     BIT       TF1
      000000A8H.5 SFRSYM    DATA     BIT       ET2
      000000ACH   SFRSYM    DATA     BYTE      ADCCFG1
      00000098H.2 SFRSYM    DATA     BIT       RB8
      000000C8H.7 SFRSYM    DATA     BIT       TF2
      000000AAH   SFRSYM    DATA     BYTE      ADCCFG2
      0000008CH   SFRSYM    DATA     BYTE      TH0
      0000008DH   SFRSYM    DATA     BYTE      TH1
      00000098H.3 SFRSYM    DATA     BIT       TB8
      000000CDH   SFRSYM    DATA     BYTE      TH2
      000000D0H.0 SFRSYM    DATA     BIT       P
      00000098H.7 SFRSYM    DATA     BIT       SM0
      0000008AH   SFRSYM    DATA     BYTE      TL0
      00000098H.6 SFRSYM    DATA     BIT       SM1
      000000CFH   SFRSYM    DATA     BYTE      WDTCON
      0000008BH   SFRSYM    DATA     BYTE      TL1
      00000098H.5 SFRSYM    DATA     BIT       SM2
      000000CCH   SFRSYM    DATA     BYTE      TL2
      000000D0H.3 SFRSYM    DATA     BIT       RS0
      00000088H.4 SFRSYM    DATA     BIT       TR0
      000000D0H.4 SFRSYM    DATA     BIT       RS1
      000000D2H   SFRSYM    DATA     BYTE      PWMCON
      00000088H.6 SFRSYM    DATA     BIT       TR1
LX51 LINKER/LOCATER V4.66.87.0                                                        12/09/2024  11:33:43  PAGE 43


      000000B8H.4 SFRSYM    DATA     BIT       IPUART
      000000C8H.2 SFRSYM    DATA     BIT       TR2
      000000D3H   SFRSYM    DATA     BYTE      PWMPRD
      00000083H   SFRSYM    DATA     BYTE      DPH
      00000082H   SFRSYM    DATA     BYTE      DPL
      000000A8H.0 SFRSYM    DATA     BIT       EINT0
      0000009AH   SFRSYM    DATA     BYTE      P0CON
      000000A8H.2 SFRSYM    DATA     BIT       EINT1
      000000B8H.6 SFRSYM    DATA     BIT       IPADC
      000000BAH   SFRSYM    DATA     BYTE      INT0F
      00000091H   SFRSYM    DATA     BYTE      P1CON
      000000C8H.3 SFRSYM    DATA     BIT       EXEN2
      000000BCH   SFRSYM    DATA     BYTE      INT1F
      000000A1H   SFRSYM    DATA     BYTE      P2CON
      000000C6H   SFRSYM    DATA     BYTE      INT2F
      00000098H.4 SFRSYM    DATA     BIT       REN
      000000D9H   SFRSYM    DATA     BYTE      P5CON
      000000AFH   SFRSYM    DATA     BYTE      ADCVH
      000000C9H   SFRSYM    DATA     BYTE      T2MOD
      000000C8H   SFRSYM    DATA     BYTE      T2CON
      000000AEH   SFRSYM    DATA     BYTE      ADCVL
      000000F7H   SFRSYM    DATA     BYTE      EXADH
      000000BBH   SFRSYM    DATA     BYTE      INT0R
      000000BDH   SFRSYM    DATA     BYTE      INT1R
      000000C7H   SFRSYM    DATA     BYTE      INT2R
      000000D0H.5 SFRSYM    DATA     BIT       F0
      000000D0H.1 SFRSYM    DATA     BIT       F1
      000000D0H   SFRSYM    DATA     BYTE      PSW

      01000006H   BLOCK     CODE     ---       LVL=0
      01000006H   LINE      CODE     ---       #18
      01000006H   LINE      CODE     ---       #19
      01000006H   LINE      CODE     ---       #20
      01000009H   LINE      CODE     ---       #21
      ---         BLOCKEND  ---      ---       LVL=0

      01001E7BH   BLOCK     CODE     ---       LVL=0
      01001E7BH   LINE      CODE     ---       #28
      01001E7BH   LINE      CODE     ---       #29
      01001E7BH   LINE      CODE     ---       #30
      01001E7EH   LINE      CODE     ---       #33
      01001E81H   LINE      CODE     ---       #34
      01001E84H   LINE      CODE     ---       #35
      01001E87H   LINE      CODE     ---       #36
      01001E89H   LINE      CODE     ---       #37
      01001E8BH   LINE      CODE     ---       #38
      01001E8DH   LINE      CODE     ---       #50
      01001E90H   LINE      CODE     ---       #51
      01001E93H   LINE      CODE     ---       #52
      01001E96H   LINE      CODE     ---       #53
      01001E99H   LINE      CODE     ---       #54
      01001E9BH   LINE      CODE     ---       #55
      01001E9DH   LINE      CODE     ---       #56
      01001E9FH   LINE      CODE     ---       #71
      01001EA1H   LINE      CODE     ---       #72
      ---         BLOCKEND  ---      ---       LVL=0
      02000101H   SYMBOL    XDATA    BYTE      clear

      01001282H   BLOCK     CODE     ---       LVL=0
      0100129FH   BLOCK     CODE     NEAR LAB  LVL=1
      0200003CH   SYMBOL    XDATA    WORD      cnt_1ms
      ---         BLOCKEND  ---      ---       LVL=1
      01001282H   LINE      CODE     ---       #97
      0100129FH   LINE      CODE     ---       #100
      010012A2H   LINE      CODE     ---       #101
LX51 LINKER/LOCATER V4.66.87.0                                                        12/09/2024  11:33:43  PAGE 44


      010012A5H   LINE      CODE     ---       #102
      010012CDH   LINE      CODE     ---       #103
      0100130BH   LINE      CODE     ---       #104
      0100130BH   LINE      CODE     ---       #105
      01001313H   LINE      CODE     ---       #106
      01001319H   LINE      CODE     ---       #107
      01001319H   LINE      CODE     ---       #108
      ---         BLOCKEND  ---      ---       LVL=0

      0100001EH   BLOCK     CODE     ---       LVL=0
      0100001EH   LINE      CODE     ---       #111
      0100001EH   LINE      CODE     ---       #113
      01000020H   LINE      CODE     ---       #114
      ---         BLOCKEND  ---      ---       LVL=0

      01001F0DH   BLOCK     CODE     ---       LVL=0
      02000102H   SYMBOL    XDATA    BYTE      clear
      01001F0DH   LINE      CODE     ---       #118
      01001F12H   LINE      CODE     ---       #119
      01001F12H   LINE      CODE     ---       #120
      01001F1AH   LINE      CODE     ---       #121
      01001F1AH   LINE      CODE     ---       #122
      01001F22H   LINE      CODE     ---       #123
      01001F27H   LINE      CODE     ---       #124
      01001F2AH   LINE      CODE     ---       #125
      01001F2AH   LINE      CODE     ---       #126
      01001F2CH   LINE      CODE     ---       #127
      ---         BLOCKEND  ---      ---       LVL=0

      01001F2DH   BLOCK     CODE     ---       LVL=0
      02000103H   SYMBOL    XDATA    BYTE      clear
      01001F2DH   LINE      CODE     ---       #129
      01001F32H   LINE      CODE     ---       #130
      01001F32H   LINE      CODE     ---       #131
      01001F3AH   LINE      CODE     ---       #132
      01001F3AH   LINE      CODE     ---       #133
      01001F42H   LINE      CODE     ---       #134
      01001F47H   LINE      CODE     ---       #135
      01001F4AH   LINE      CODE     ---       #136
      01001F4AH   LINE      CODE     ---       #137
      01001F4CH   LINE      CODE     ---       #138
      ---         BLOCKEND  ---      ---       LVL=0

      01001507H   BLOCK     CODE     ---       LVL=0
      0100151EH   BLOCK     CODE     NEAR LAB  LVL=1
      0200003EH   SYMBOL    XDATA    WORD      cnt
      02000040H   SYMBOL    XDATA    WORD      cnt_ms
      ---         BLOCKEND  ---      ---       LVL=1
      01001507H   LINE      CODE     ---       #140
      0100151EH   LINE      CODE     ---       #144
      01001520H   LINE      CODE     ---       #145
      0100152EH   LINE      CODE     ---       #146
      01001544H   LINE      CODE     ---       #147
      01001544H   LINE      CODE     ---       #148
      0100154CH   LINE      CODE     ---       #149
      01001552H   LINE      CODE     ---       #150
      01001552H   LINE      CODE     ---       #151
      0100156DH   LINE      CODE     ---       #152
      0100156DH   LINE      CODE     ---       #153
      01001575H   LINE      CODE     ---       #154
      0100157BH   LINE      CODE     ---       #155
      0100157BH   LINE      CODE     ---       #157
      ---         BLOCKEND  ---      ---       LVL=0

      01001D44H   BLOCK     CODE     ---       LVL=0
LX51 LINKER/LOCATER V4.66.87.0                                                        12/09/2024  11:33:43  PAGE 45


      01001D44H   LINE      CODE     ---       #160
      01001D44H   LINE      CODE     ---       #161
      01001D44H   LINE      CODE     ---       #162
      01001D4CH   LINE      CODE     ---       #163
      01001D4CH   LINE      CODE     ---       #164
      01001D4FH   LINE      CODE     ---       #165
      01001D4FH   LINE      CODE     ---       #166
      01001D56H   LINE      CODE     ---       #167
      01001D5CH   LINE      CODE     ---       #168
      01001D64H   LINE      CODE     ---       #169
      01001D64H   LINE      CODE     ---       #170
      01001D66H   LINE      CODE     ---       #171
      01001D66H   LINE      CODE     ---       #172
      01001D67H   LINE      CODE     ---       #174
      01001D67H   LINE      CODE     ---       #175
      01001D6EH   LINE      CODE     ---       #176
      01001D74H   LINE      CODE     ---       #177
      01001D7DH   LINE      CODE     ---       #178
      01001D7DH   LINE      CODE     ---       #179
      01001D7FH   LINE      CODE     ---       #180
      01001D7FH   LINE      CODE     ---       #181
      01001D7FH   LINE      CODE     ---       #182
      01001D7FH   LINE      CODE     ---       #183
      ---         BLOCKEND  ---      ---       LVL=0

      ---         MODULE    ---      ---       UART_INIT
      02000070H   PUBLIC    XDATA    ---       UART_RxData
      00000020H.1 PUBLIC    BIT      BIT       UartReceiveFlag
      00000020H.0 PUBLIC    BIT      BIT       UartSendFlag
      01001FCEH   PUBLIC    CODE     ---       UartInt
      020000B1H   PUBLIC    XDATA    BYTE      ?_Uart0_Init?BYTE
      000000FFH   SFRSYM    DATA     BYTE      OPREG
      00000080H   SFRSYM    DATA     BYTE      P0
      0000009FH   SFRSYM    DATA     BYTE      SSDAT
      00000090H   SFRSYM    DATA     BYTE      P1
      000000A0H   SFRSYM    DATA     BYTE      P2
      000000A8H.4 SFRSYM    DATA     BIT       EUART
      0000008EH   SFRSYM    DATA     BYTE      TMCON
      000000D0H.6 SFRSYM    DATA     BIT       AC
      0000008FH   SFRSYM    DATA     BYTE      OTCON
      000000D8H   SFRSYM    DATA     BYTE      P5
      000000A8H.7 SFRSYM    DATA     BIT       EA
      000000C8H.1 SFRSYM    DATA     BIT       T2
      000000A8H.6 SFRSYM    DATA     BIT       EADC
      000000A8H   SFRSYM    DATA     BYTE      IE
      000000E9H   SFRSYM    DATA     BYTE      EXA0
      000000FEH   SFRSYM    DATA     BYTE      OPINX
      000000EAH   SFRSYM    DATA     BYTE      EXA1
      000000EBH   SFRSYM    DATA     BYTE      EXA2
      000000ECH   SFRSYM    DATA     BYTE      EXA3
      000000C8H.0 SFRSYM    DATA     BIT       CP
      000000C8H.6 SFRSYM    DATA     BIT       EXF2
      000000D5H   SFRSYM    DATA     BYTE      PWMDTY0
      000000EFH   SFRSYM    DATA     BYTE      OPERCON
      000000D6H   SFRSYM    DATA     BYTE      PWMDTY1
      0000009BH   SFRSYM    DATA     BYTE      P0PH
      000000B8H   SFRSYM    DATA     BYTE      IP
      000000D7H   SFRSYM    DATA     BYTE      PWMDTY2
      00000092H   SFRSYM    DATA     BYTE      P1PH
      00000098H.0 SFRSYM    DATA     BIT       RI
      000000DDH   SFRSYM    DATA     BYTE      PWMDTY3
      000000A2H   SFRSYM    DATA     BYTE      P2PH
      000000D0H.7 SFRSYM    DATA     BIT       CY
      000000DEH   SFRSYM    DATA     BYTE      PWMDTY4
      00000098H.1 SFRSYM    DATA     BIT       TI
LX51 LINKER/LOCATER V4.66.87.0                                                        12/09/2024  11:33:43  PAGE 46


      000000DFH   SFRSYM    DATA     BYTE      PWMDTY5
      000000B8H.1 SFRSYM    DATA     BIT       IPT0
      000000DAH   SFRSYM    DATA     BYTE      P5PH
      000000B8H.3 SFRSYM    DATA     BIT       IPT1
      000000B8H.5 SFRSYM    DATA     BIT       IPT2
      000000CBH   SFRSYM    DATA     BYTE      RCAP2H
      00000081H   SFRSYM    DATA     BYTE      SP
      000000D0H.2 SFRSYM    DATA     BIT       OV
      000000F4H   SFRSYM    DATA     BYTE      IAPADE
      000000CAH   SFRSYM    DATA     BYTE      RCAP2L
      0000009CH   SFRSYM    DATA     BYTE      P0VO
      000000EEH   SFRSYM    DATA     BYTE      EXBH
      000000F3H   SFRSYM    DATA     BYTE      IAPADH
      000000D4H   SFRSYM    DATA     BYTE      PWMDTYA
      000000DCH   SFRSYM    DATA     BYTE      PWMDTYB
      000000ADH   SFRSYM    DATA     BYTE      ADCCON
      000000EDH   SFRSYM    DATA     BYTE      EXBL
      000000C8H.5 SFRSYM    DATA     BIT       RCLK
      000000F2H   SFRSYM    DATA     BYTE      IAPADL
      000000C8H.4 SFRSYM    DATA     BIT       TCLK
      00000080H.0 SFRSYM    DATA     BIT       P00
      00000090H.0 SFRSYM    DATA     BIT       P10
      00000080H.1 SFRSYM    DATA     BIT       P01
      00000099H   SFRSYM    DATA     BYTE      SBUF
      00000087H   SFRSYM    DATA     BYTE      PCON
      000000A0H.0 SFRSYM    DATA     BIT       P20
      00000090H.1 SFRSYM    DATA     BIT       P11
      00000080H.2 SFRSYM    DATA     BIT       P02
      000000A0H.1 SFRSYM    DATA     BIT       P21
      00000090H.2 SFRSYM    DATA     BIT       P12
      00000080H.3 SFRSYM    DATA     BIT       P03
      000000A0H.2 SFRSYM    DATA     BIT       P22
      00000090H.3 SFRSYM    DATA     BIT       P13
      00000080H.4 SFRSYM    DATA     BIT       P04
      00000098H   SFRSYM    DATA     BYTE      SCON
      000000D8H.0 SFRSYM    DATA     BIT       P50
      000000A0H.3 SFRSYM    DATA     BIT       P23
      00000090H.4 SFRSYM    DATA     BIT       P14
      00000080H.5 SFRSYM    DATA     BIT       P05
      000000F5H   SFRSYM    DATA     BYTE      IAPDAT
      00000089H   SFRSYM    DATA     BYTE      TMOD
      00000088H   SFRSYM    DATA     BYTE      TCON
      000000D8H.1 SFRSYM    DATA     BIT       P51
      000000A0H.4 SFRSYM    DATA     BIT       P24
      00000090H.5 SFRSYM    DATA     BIT       P15
      00000080H.6 SFRSYM    DATA     BIT       P06
      000000B8H.0 SFRSYM    DATA     BIT       IPINT0
      000000A0H.5 SFRSYM    DATA     BIT       P25
      00000090H.6 SFRSYM    DATA     BIT       P16
      00000080H.7 SFRSYM    DATA     BIT       P07
      000000B8H.2 SFRSYM    DATA     BIT       IPINT1
      000000A0H.6 SFRSYM    DATA     BIT       P26
      00000090H.7 SFRSYM    DATA     BIT       P17
      0000009DH   SFRSYM    DATA     BYTE      SSCON0
      000000A0H.7 SFRSYM    DATA     BIT       P27
      0000009EH   SFRSYM    DATA     BYTE      SSCON1
      00000095H   SFRSYM    DATA     BYTE      SSCON2
      000000F6H   SFRSYM    DATA     BYTE      IAPCTL
      000000A9H   SFRSYM    DATA     BYTE      IE1
      000000F0H   SFRSYM    DATA     BYTE      B
      00000097H   SFRSYM    DATA     BYTE      IOHCON
      000000F1H   SFRSYM    DATA     BYTE      IAPKEY
      000000CEH   SFRSYM    DATA     BYTE      BTMCON
      000000D1H   SFRSYM    DATA     BYTE      PWMCFG
      000000E0H   SFRSYM    DATA     BYTE      ACC
LX51 LINKER/LOCATER V4.66.87.0                                                        12/09/2024  11:33:43  PAGE 47


      000000A8H.1 SFRSYM    DATA     BIT       ET0
      00000088H.5 SFRSYM    DATA     BIT       TF0
      000000A8H.3 SFRSYM    DATA     BIT       ET1
      000000ABH   SFRSYM    DATA     BYTE      ADCCFG0
      000000B9H   SFRSYM    DATA     BYTE      IP1
      00000088H.7 SFRSYM    DATA     BIT       TF1
      000000A8H.5 SFRSYM    DATA     BIT       ET2
      000000ACH   SFRSYM    DATA     BYTE      ADCCFG1
      00000098H.2 SFRSYM    DATA     BIT       RB8
      000000C8H.7 SFRSYM    DATA     BIT       TF2
      000000AAH   SFRSYM    DATA     BYTE      ADCCFG2
      0000008CH   SFRSYM    DATA     BYTE      TH0
      0000008DH   SFRSYM    DATA     BYTE      TH1
      00000098H.3 SFRSYM    DATA     BIT       TB8
      000000CDH   SFRSYM    DATA     BYTE      TH2
      000000D0H.0 SFRSYM    DATA     BIT       P
      00000098H.7 SFRSYM    DATA     BIT       SM0
      0000008AH   SFRSYM    DATA     BYTE      TL0
      00000098H.6 SFRSYM    DATA     BIT       SM1
      000000CFH   SFRSYM    DATA     BYTE      WDTCON
      0000008BH   SFRSYM    DATA     BYTE      TL1
      00000098H.5 SFRSYM    DATA     BIT       SM2
      000000CCH   SFRSYM    DATA     BYTE      TL2
      000000D0H.3 SFRSYM    DATA     BIT       RS0
      00000088H.4 SFRSYM    DATA     BIT       TR0
      000000D0H.4 SFRSYM    DATA     BIT       RS1
      000000D2H   SFRSYM    DATA     BYTE      PWMCON
      00000088H.6 SFRSYM    DATA     BIT       TR1
      000000B8H.4 SFRSYM    DATA     BIT       IPUART
      000000C8H.2 SFRSYM    DATA     BIT       TR2
      000000D3H   SFRSYM    DATA     BYTE      PWMPRD
      00000083H   SFRSYM    DATA     BYTE      DPH
      00000082H   SFRSYM    DATA     BYTE      DPL
      000000A8H.0 SFRSYM    DATA     BIT       EINT0
      0000009AH   SFRSYM    DATA     BYTE      P0CON
      000000A8H.2 SFRSYM    DATA     BIT       EINT1
      000000B8H.6 SFRSYM    DATA     BIT       IPADC
      000000BAH   SFRSYM    DATA     BYTE      INT0F
      00000091H   SFRSYM    DATA     BYTE      P1CON
      000000C8H.3 SFRSYM    DATA     BIT       EXEN2
      000000BCH   SFRSYM    DATA     BYTE      INT1F
      000000A1H   SFRSYM    DATA     BYTE      P2CON
      000000C6H   SFRSYM    DATA     BYTE      INT2F
      00000098H.4 SFRSYM    DATA     BIT       REN
      000000D9H   SFRSYM    DATA     BYTE      P5CON
      000000AFH   SFRSYM    DATA     BYTE      ADCVH
      000000C9H   SFRSYM    DATA     BYTE      T2MOD
      000000C8H   SFRSYM    DATA     BYTE      T2CON
      000000AEH   SFRSYM    DATA     BYTE      ADCVL
      000000F7H   SFRSYM    DATA     BYTE      EXADH
      000000BBH   SFRSYM    DATA     BYTE      INT0R
      000000BDH   SFRSYM    DATA     BYTE      INT1R
      000000C7H   SFRSYM    DATA     BYTE      INT2R
      000000D0H.5 SFRSYM    DATA     BIT       F0
      000000D0H.1 SFRSYM    DATA     BIT       F1
      000000D0H   SFRSYM    DATA     BYTE      PSW
      020000DAH   SYMBOL    XDATA    INT       num1
      020000DCH   SYMBOL    XDATA    INT       num2
      020000B1H   SYMBOL    XDATA    WORD      Freq
      020000B3H   SYMBOL    XDATA    DWORD     baud

      01001FCEH   BLOCK     CODE     ---       LVL=0
      01001FCEH   LINE      CODE     ---       #83
      01001FCEH   LINE      CODE     ---       #85
      01001FD1H   LINE      CODE     ---       #86
LX51 LINKER/LOCATER V4.66.87.0                                                        12/09/2024  11:33:43  PAGE 48


      01001FD1H   LINE      CODE     ---       #87
      01001FD3H   LINE      CODE     ---       #88
      01001FD5H   LINE      CODE     ---       #89
      01001FD5H   LINE      CODE     ---       #90
      01001FD8H   LINE      CODE     ---       #91
      01001FD8H   LINE      CODE     ---       #92
      01001FDAH   LINE      CODE     ---       #93
      01001FDCH   LINE      CODE     ---       #94
      01001FDCH   LINE      CODE     ---       #95
      ---         BLOCKEND  ---      ---       LVL=0

      ---         MODULE    ---      ---       ADC_INIT
      020000FDH   PUBLIC    XDATA    WORD      ADCValue
      00000021H.0 PUBLIC    BIT      BIT       AdcFlag
      01002044H   PUBLIC    CODE     ---       ADC_Interrupt
      000000FFH   SFRSYM    DATA     BYTE      OPREG
      00000080H   SFRSYM    DATA     BYTE      P0
      0000009FH   SFRSYM    DATA     BYTE      SSDAT
      00000090H   SFRSYM    DATA     BYTE      P1
      000000A0H   SFRSYM    DATA     BYTE      P2
      000000A8H.4 SFRSYM    DATA     BIT       EUART
      0000008EH   SFRSYM    DATA     BYTE      TMCON
      000000D0H.6 SFRSYM    DATA     BIT       AC
      0000008FH   SFRSYM    DATA     BYTE      OTCON
      000000D8H   SFRSYM    DATA     BYTE      P5
      000000A8H.7 SFRSYM    DATA     BIT       EA
      000000C8H.1 SFRSYM    DATA     BIT       T2
      000000A8H.6 SFRSYM    DATA     BIT       EADC
      000000A8H   SFRSYM    DATA     BYTE      IE
      000000E9H   SFRSYM    DATA     BYTE      EXA0
      000000FEH   SFRSYM    DATA     BYTE      OPINX
      000000EAH   SFRSYM    DATA     BYTE      EXA1
      000000EBH   SFRSYM    DATA     BYTE      EXA2
      000000ECH   SFRSYM    DATA     BYTE      EXA3
      000000C8H.0 SFRSYM    DATA     BIT       CP
      000000C8H.6 SFRSYM    DATA     BIT       EXF2
      000000D5H   SFRSYM    DATA     BYTE      PWMDTY0
      000000EFH   SFRSYM    DATA     BYTE      OPERCON
      000000D6H   SFRSYM    DATA     BYTE      PWMDTY1
      0000009BH   SFRSYM    DATA     BYTE      P0PH
      000000B8H   SFRSYM    DATA     BYTE      IP
      000000D7H   SFRSYM    DATA     BYTE      PWMDTY2
      00000092H   SFRSYM    DATA     BYTE      P1PH
      00000098H.0 SFRSYM    DATA     BIT       RI
      000000DDH   SFRSYM    DATA     BYTE      PWMDTY3
      000000A2H   SFRSYM    DATA     BYTE      P2PH
      000000D0H.7 SFRSYM    DATA     BIT       CY
      000000DEH   SFRSYM    DATA     BYTE      PWMDTY4
      00000098H.1 SFRSYM    DATA     BIT       TI
      000000DFH   SFRSYM    DATA     BYTE      PWMDTY5
      000000B8H.1 SFRSYM    DATA     BIT       IPT0
      000000DAH   SFRSYM    DATA     BYTE      P5PH
      000000B8H.3 SFRSYM    DATA     BIT       IPT1
      000000B8H.5 SFRSYM    DATA     BIT       IPT2
      000000CBH   SFRSYM    DATA     BYTE      RCAP2H
      00000081H   SFRSYM    DATA     BYTE      SP
      000000D0H.2 SFRSYM    DATA     BIT       OV
      000000F4H   SFRSYM    DATA     BYTE      IAPADE
      000000CAH   SFRSYM    DATA     BYTE      RCAP2L
      0000009CH   SFRSYM    DATA     BYTE      P0VO
      000000EEH   SFRSYM    DATA     BYTE      EXBH
      000000F3H   SFRSYM    DATA     BYTE      IAPADH
      000000D4H   SFRSYM    DATA     BYTE      PWMDTYA
      000000DCH   SFRSYM    DATA     BYTE      PWMDTYB
      000000ADH   SFRSYM    DATA     BYTE      ADCCON
LX51 LINKER/LOCATER V4.66.87.0                                                        12/09/2024  11:33:43  PAGE 49


      000000EDH   SFRSYM    DATA     BYTE      EXBL
      000000C8H.5 SFRSYM    DATA     BIT       RCLK
      000000F2H   SFRSYM    DATA     BYTE      IAPADL
      000000C8H.4 SFRSYM    DATA     BIT       TCLK
      00000080H.0 SFRSYM    DATA     BIT       P00
      00000090H.0 SFRSYM    DATA     BIT       P10
      00000080H.1 SFRSYM    DATA     BIT       P01
      00000099H   SFRSYM    DATA     BYTE      SBUF
      00000087H   SFRSYM    DATA     BYTE      PCON
      000000A0H.0 SFRSYM    DATA     BIT       P20
      00000090H.1 SFRSYM    DATA     BIT       P11
      00000080H.2 SFRSYM    DATA     BIT       P02
      000000A0H.1 SFRSYM    DATA     BIT       P21
      00000090H.2 SFRSYM    DATA     BIT       P12
      00000080H.3 SFRSYM    DATA     BIT       P03
      000000A0H.2 SFRSYM    DATA     BIT       P22
      00000090H.3 SFRSYM    DATA     BIT       P13
      00000080H.4 SFRSYM    DATA     BIT       P04
      00000098H   SFRSYM    DATA     BYTE      SCON
      000000D8H.0 SFRSYM    DATA     BIT       P50
      000000A0H.3 SFRSYM    DATA     BIT       P23
      00000090H.4 SFRSYM    DATA     BIT       P14
      00000080H.5 SFRSYM    DATA     BIT       P05
      000000F5H   SFRSYM    DATA     BYTE      IAPDAT
      00000089H   SFRSYM    DATA     BYTE      TMOD
      00000088H   SFRSYM    DATA     BYTE      TCON
      000000D8H.1 SFRSYM    DATA     BIT       P51
      000000A0H.4 SFRSYM    DATA     BIT       P24
      00000090H.5 SFRSYM    DATA     BIT       P15
      00000080H.6 SFRSYM    DATA     BIT       P06
      000000B8H.0 SFRSYM    DATA     BIT       IPINT0
      000000A0H.5 SFRSYM    DATA     BIT       P25
      00000090H.6 SFRSYM    DATA     BIT       P16
      00000080H.7 SFRSYM    DATA     BIT       P07
      000000B8H.2 SFRSYM    DATA     BIT       IPINT1
      000000A0H.6 SFRSYM    DATA     BIT       P26
      00000090H.7 SFRSYM    DATA     BIT       P17
      0000009DH   SFRSYM    DATA     BYTE      SSCON0
      000000A0H.7 SFRSYM    DATA     BIT       P27
      0000009EH   SFRSYM    DATA     BYTE      SSCON1
      00000095H   SFRSYM    DATA     BYTE      SSCON2
      000000F6H   SFRSYM    DATA     BYTE      IAPCTL
      000000A9H   SFRSYM    DATA     BYTE      IE1
      000000F0H   SFRSYM    DATA     BYTE      B
      00000097H   SFRSYM    DATA     BYTE      IOHCON
      000000F1H   SFRSYM    DATA     BYTE      IAPKEY
      000000CEH   SFRSYM    DATA     BYTE      BTMCON
      000000D1H   SFRSYM    DATA     BYTE      PWMCFG
      000000E0H   SFRSYM    DATA     BYTE      ACC
      000000A8H.1 SFRSYM    DATA     BIT       ET0
      00000088H.5 SFRSYM    DATA     BIT       TF0
      000000A8H.3 SFRSYM    DATA     BIT       ET1
      000000ABH   SFRSYM    DATA     BYTE      ADCCFG0
      000000B9H   SFRSYM    DATA     BYTE      IP1
      00000088H.7 SFRSYM    DATA     BIT       TF1
      000000A8H.5 SFRSYM    DATA     BIT       ET2
      000000ACH   SFRSYM    DATA     BYTE      ADCCFG1
      00000098H.2 SFRSYM    DATA     BIT       RB8
      000000C8H.7 SFRSYM    DATA     BIT       TF2
      000000AAH   SFRSYM    DATA     BYTE      ADCCFG2
      0000008CH   SFRSYM    DATA     BYTE      TH0
      0000008DH   SFRSYM    DATA     BYTE      TH1
      00000098H.3 SFRSYM    DATA     BIT       TB8
      000000CDH   SFRSYM    DATA     BYTE      TH2
      000000D0H.0 SFRSYM    DATA     BIT       P
LX51 LINKER/LOCATER V4.66.87.0                                                        12/09/2024  11:33:43  PAGE 50


      00000098H.7 SFRSYM    DATA     BIT       SM0
      0000008AH   SFRSYM    DATA     BYTE      TL0
      00000098H.6 SFRSYM    DATA     BIT       SM1
      000000CFH   SFRSYM    DATA     BYTE      WDTCON
      0000008BH   SFRSYM    DATA     BYTE      TL1
      00000098H.5 SFRSYM    DATA     BIT       SM2
      000000CCH   SFRSYM    DATA     BYTE      TL2
      000000D0H.3 SFRSYM    DATA     BIT       RS0
      00000088H.4 SFRSYM    DATA     BIT       TR0
      000000D0H.4 SFRSYM    DATA     BIT       RS1
      000000D2H   SFRSYM    DATA     BYTE      PWMCON
      00000088H.6 SFRSYM    DATA     BIT       TR1
      000000B8H.4 SFRSYM    DATA     BIT       IPUART
      000000C8H.2 SFRSYM    DATA     BIT       TR2
      000000D3H   SFRSYM    DATA     BYTE      PWMPRD
      00000083H   SFRSYM    DATA     BYTE      DPH
      00000082H   SFRSYM    DATA     BYTE      DPL
      000000A8H.0 SFRSYM    DATA     BIT       EINT0
      0000009AH   SFRSYM    DATA     BYTE      P0CON
      000000A8H.2 SFRSYM    DATA     BIT       EINT1
      000000B8H.6 SFRSYM    DATA     BIT       IPADC
      000000BAH   SFRSYM    DATA     BYTE      INT0F
      00000091H   SFRSYM    DATA     BYTE      P1CON
      000000C8H.3 SFRSYM    DATA     BIT       EXEN2
      000000BCH   SFRSYM    DATA     BYTE      INT1F
      000000A1H   SFRSYM    DATA     BYTE      P2CON
      000000C6H   SFRSYM    DATA     BYTE      INT2F
      00000098H.4 SFRSYM    DATA     BIT       REN
      000000D9H   SFRSYM    DATA     BYTE      P5CON
      000000AFH   SFRSYM    DATA     BYTE      ADCVH
      000000C9H   SFRSYM    DATA     BYTE      T2MOD
      000000C8H   SFRSYM    DATA     BYTE      T2CON
      000000AEH   SFRSYM    DATA     BYTE      ADCVL
      000000F7H   SFRSYM    DATA     BYTE      EXADH
      000000BBH   SFRSYM    DATA     BYTE      INT0R
      000000BDH   SFRSYM    DATA     BYTE      INT1R
      000000C7H   SFRSYM    DATA     BYTE      INT2R
      000000D0H.5 SFRSYM    DATA     BIT       F0
      000000D0H.1 SFRSYM    DATA     BIT       F1
      000000D0H   SFRSYM    DATA     BYTE      PSW
      020000E5H   SYMBOL    XDATA    WORD      Channel
      020000E7H   SYMBOL    XDATA    BYTE      ADCFreq
      0200007AH   SYMBOL    XDATA    BYTE      ADC_SamplesNum
      0200007BH   SYMBOL    XDATA    BYTE      tmpCnt
      0200007CH   SYMBOL    XDATA    WORD      tmpValueSum
      0200007EH   SYMBOL    XDATA    WORD      tmpValue
      02000080H   SYMBOL    XDATA    WORD      tmpValue_Max
      02000082H   SYMBOL    XDATA    WORD      tmpValue_Min

      01002044H   BLOCK     CODE     ---       LVL=0
      01002044H   LINE      CODE     ---       #115
      01002044H   LINE      CODE     ---       #117
      01002047H   LINE      CODE     ---       #118
      01002049H   LINE      CODE     ---       #119
      ---         BLOCKEND  ---      ---       LVL=0

      ---         MODULE    ---      ---       TKDRIVER
      02000016H   PUBLIC    XDATA    BYTE      MultipleDealTpye
      02000015H   PUBLIC    XDATA    ---       NoTouchCnt
      02000013H   PUBLIC    XDATA    ---       FilterData
      02000012H   PUBLIC    XDATA    CHAR      SetNoiseThreshold
      02000010H   PUBLIC    XDATA    WORD      UpdateBaseLNum
      0200000FH   PUBLIC    XDATA    BYTE      SOCAPI_TouchKeyStatus
      0200000DH   PUBLIC    XDATA    WORD      MultipleLNum
      0200000CH   PUBLIC    XDATA    ---       BaseLineAdjusttmp
LX51 LINKER/LOCATER V4.66.87.0                                                        12/09/2024  11:33:43  PAGE 51


      0200000BH   PUBLIC    XDATA    ---       RestAreaCnt
      02000009H   PUBLIC    XDATA    ---       DifferAccum
      02000008H   PUBLIC    XDATA    ---       LowFingerDataCnt
      02000007H   PUBLIC    XDATA    ---       TouchCnt
      02000005H   PUBLIC    XDATA    ---       RawData
      02000004H   PUBLIC    XDATA    ---       CurrentChannel
      02000003H   PUBLIC    XDATA    ---       FloatAreaCnt
      02000001H   PUBLIC    XDATA    ---       BaseLine
      02000000H   PUBLIC    XDATA    BYTE      ConfirmTouchCnt
      01002076H   PUBLIC    CONST    BYTE      CFG_CYCLE_CNT
      01002075H   PUBLIC    CONST    BYTE      CFG_RESET_BASELINE_CNT
      01002074H   PUBLIC    CONST    BYTE      CFG_OVERLOW_MAX_COUNT
      0100206CH   PUBLIC    CONST    ---       TKChannelCfg
      0100204AH   PUBLIC    CONST    ---       TKCFG
      01001D80H   PUBLIC    CODE     ---       CTK_ISR
      01000C86H   PUBLIC    CODE     ---       TouchKeyScan
      01001A5BH   PUBLIC    CODE     ---       TouchKeyCFGInit
      01001BB3H   PUBLIC    CODE     ---       _GetCfgMsg
      01001B5FH   PUBLIC    CODE     ---       CurrentSensorChoose
      01001CC7H   PUBLIC    CODE     ---       _GetTKYzThreshold
      01001FE9H   PUBLIC    CODE     ---       GetTKYzCnt
      01002021H   PUBLIC    CODE     ---       GetUpConfirmCnt
      01001FA5H   PUBLIC    CODE     ---       _GetBaseLineAdjustValue
      01002016H   PUBLIC    CODE     ---       IsDoubleKeyOrSlideKey
      01001F89H   PUBLIC    CODE     ---       _GetScanTimeValue
      01001C87H   PUBLIC    CODE     ---       _GetCurrFingerValue
      01000026H   PUBLIC    CODE     ---       GetCsFunction
      0100200BH   PUBLIC    CODE     ---       GetInitAutoUpdateTime
      01002000H   PUBLIC    CODE     ---       GetBaselineUpdateThreshold
      01001FF5H   PUBLIC    CODE     ---       SetOneKeyPushResetTime
      000000D0H.7 SFRSYM    DATA     BIT       TK_CY
      000000D0H   SFRSYM    DATA     BYTE      TK_PSW

      01001FF5H   BLOCK     CODE     ---       LVL=0
      01001FF5H   LINE      CODE     ---       #118
      01001FF5H   LINE      CODE     ---       #119
      01001FF5H   LINE      CODE     ---       #120
      01001FFFH   LINE      CODE     ---       #121
      ---         BLOCKEND  ---      ---       LVL=0

      01002000H   BLOCK     CODE     ---       LVL=0
      01002000H   LINE      CODE     ---       #129
      01002000H   LINE      CODE     ---       #130
      01002000H   LINE      CODE     ---       #131
      0100200AH   LINE      CODE     ---       #132
      ---         BLOCKEND  ---      ---       LVL=0

      0100200BH   BLOCK     CODE     ---       LVL=0
      0100200BH   LINE      CODE     ---       #141
      0100200BH   LINE      CODE     ---       #142
      0100200BH   LINE      CODE     ---       #143
      01002015H   LINE      CODE     ---       #144
      ---         BLOCKEND  ---      ---       LVL=0

      01000026H   BLOCK     CODE     ---       LVL=0
      01000026H   LINE      CODE     ---       #152
      01000026H   LINE      CODE     ---       #153
      01000026H   LINE      CODE     ---       #154
      01000028H   LINE      CODE     ---       #155
      ---         BLOCKEND  ---      ---       LVL=0

      01001C87H   BLOCK     CODE     ---       LVL=0
      02000104H   SYMBOL    XDATA    BYTE      i
      01001C87H   LINE      CODE     ---       #163
      01001C8CH   LINE      CODE     ---       #164
LX51 LINKER/LOCATER V4.66.87.0                                                        12/09/2024  11:33:43  PAGE 52


      01001C8CH   LINE      CODE     ---       #165
      01001CC6H   LINE      CODE     ---       #166
      ---         BLOCKEND  ---      ---       LVL=0

      01001F89H   BLOCK     CODE     ---       LVL=0
      02000105H   SYMBOL    XDATA    BYTE      i
      01001F89H   LINE      CODE     ---       #175
      01001F8EH   LINE      CODE     ---       #176
      01001F8EH   LINE      CODE     ---       #177
      01001FA4H   LINE      CODE     ---       #178
      ---         BLOCKEND  ---      ---       LVL=0

      01002016H   BLOCK     CODE     ---       LVL=0
      01002016H   LINE      CODE     ---       #186
      01002016H   LINE      CODE     ---       #187
      01002016H   LINE      CODE     ---       #188
      01002020H   LINE      CODE     ---       #189
      ---         BLOCKEND  ---      ---       LVL=0

      01001FA5H   BLOCK     CODE     ---       LVL=0
      02000106H   SYMBOL    XDATA    BYTE      i
      01001FA5H   LINE      CODE     ---       #198
      01001FAAH   LINE      CODE     ---       #199
      01001FAAH   LINE      CODE     ---       #200
      01001FBBH   LINE      CODE     ---       #201
      ---         BLOCKEND  ---      ---       LVL=0

      01002021H   BLOCK     CODE     ---       LVL=0
      01002021H   LINE      CODE     ---       #209
      01002021H   LINE      CODE     ---       #210
      01002021H   LINE      CODE     ---       #211
      0100202AH   LINE      CODE     ---       #212
      ---         BLOCKEND  ---      ---       LVL=0

      01001FE9H   BLOCK     CODE     ---       LVL=0
      01001FE9H   LINE      CODE     ---       #221
      01001FE9H   LINE      CODE     ---       #222
      01001FE9H   LINE      CODE     ---       #223
      01001FF4H   LINE      CODE     ---       #224
      ---         BLOCKEND  ---      ---       LVL=0

      01001CC7H   BLOCK     CODE     ---       LVL=0
      020000E8H   SYMBOL    XDATA    BYTE      i
      01001CCCH   BLOCK     CODE     NEAR LAB  LVL=1
      020000E9H   SYMBOL    XDATA    WORD      SetFingerThresholdtmp
      ---         BLOCKEND  ---      ---       LVL=1
      01001CC7H   LINE      CODE     ---       #233
      01001CCCH   LINE      CODE     ---       #234
      01001CCCH   LINE      CODE     ---       #237
      01001CDCH   LINE      CODE     ---       #238
      01001CFEH   LINE      CODE     ---       #240
      01001D06H   LINE      CODE     ---       #241
      ---         BLOCKEND  ---      ---       LVL=0

      01001B5FH   BLOCK     CODE     ---       LVL=0
      01001B5FH   BLOCK     CODE     NEAR LAB  LVL=1
      00000008H   SYMBOL    DATA     BYTE      i
      00000009H   SYMBOL    DATA     BYTE      Ctk_Channel_mark
      0000000AH   SYMBOL    DATA     DWORD     CurrentSensorKey
      ---         BLOCKEND  ---      ---       LVL=1
      01001B5FH   LINE      CODE     ---       #249
      01001B5FH   LINE      CODE     ---       #250
      01001B5FH   LINE      CODE     ---       #251
      01001B62H   LINE      CODE     ---       #252
      01001B65H   LINE      CODE     ---       #257
LX51 LINKER/LOCATER V4.66.87.0                                                        12/09/2024  11:33:43  PAGE 53


      01001B71H   LINE      CODE     ---       #259
      01001B7BH   LINE      CODE     ---       #260
      01001B7BH   LINE      CODE     ---       #261
      01001B90H   LINE      CODE     ---       #262
      01001B93H   LINE      CODE     ---       #263
      01001B93H   LINE      CODE     ---       #264
      01001BA2H   LINE      CODE     ---       #265
      01001BA4H   LINE      CODE     ---       #266
      01001BABH   LINE      CODE     ---       #267
      01001BABH   LINE      CODE     ---       #268
      01001BABH   LINE      CODE     ---       #269
      01001BAFH   LINE      CODE     ---       #270
      01001BB2H   LINE      CODE     ---       #271
      ---         BLOCKEND  ---      ---       LVL=0

      01001BB3H   BLOCK     CODE     ---       LVL=0
      02000107H   SYMBOL    XDATA    BYTE      i
      01001BB3H   LINE      CODE     ---       #280
      01001BB8H   LINE      CODE     ---       #281
      01001BB8H   LINE      CODE     ---       #282
      01001BD4H   LINE      CODE     ---       #283
      01001BD4H   LINE      CODE     ---       #284
      01001BDBH   LINE      CODE     ---       #285
      01001BE2H   LINE      CODE     ---       #286
      01001BE9H   LINE      CODE     ---       #287
      01001BEFH   LINE      CODE     ---       #288
      01001BFAH   LINE      CODE     ---       #289
      01001BFCH   LINE      CODE     ---       #290
      01001BFCH   LINE      CODE     ---       #291
      ---         BLOCKEND  ---      ---       LVL=0

      01001A5BH   BLOCK     CODE     ---       LVL=0
      01001A5BH   BLOCK     CODE     NEAR LAB  LVL=1
      0000000EH   SYMBOL    DATA     BYTE      i
      ---         BLOCKEND  ---      ---       LVL=1
      01001A5BH   LINE      CODE     ---       #300
      01001A5BH   LINE      CODE     ---       #301
      01001A5BH   LINE      CODE     ---       #303
      01001A6AH   LINE      CODE     ---       #304
      01001A79H   LINE      CODE     ---       #305
      01001A7CH   LINE      CODE     ---       #306
      01001A86H   LINE      CODE     ---       #307
      01001A86H   LINE      CODE     ---       #308
      01001AA7H   LINE      CODE     ---       #309
      01001AABH   LINE      CODE     ---       #310
      01001AB3H   LINE      CODE     ---       #311
      ---         BLOCKEND  ---      ---       LVL=0

      01000C86H   BLOCK     CODE     ---       LVL=0
      01000C86H   BLOCK     CODE     NEAR LAB  LVL=1
      0000000FH   SYMBOL    DATA     BYTE      t
      00000010H   SYMBOL    DATA     BYTE      MultipleCnt
      00000011H   SYMBOL    DATA     DWORD     Keyvalue
      00000015H   SYMBOL    DATA     DWORD     KeyData
      ---         BLOCKEND  ---      ---       LVL=1
      01000C86H   LINE      CODE     ---       #323
      01000C86H   LINE      CODE     ---       #324
      01000C86H   LINE      CODE     ---       #326
      01000C89H   LINE      CODE     ---       #328
      01000C95H   LINE      CODE     ---       #330
      01000C9DH   LINE      CODE     ---       #331
      01000C9DH   LINE      CODE     ---       #332
      01000CA8H   LINE      CODE     ---       #333
      01000CB2H   LINE      CODE     ---       #334
      01000CB2H   LINE      CODE     ---       #335
LX51 LINKER/LOCATER V4.66.87.0                                                        12/09/2024  11:33:43  PAGE 54


      01000CC7H   LINE      CODE     ---       #336
      01000CCAH   LINE      CODE     ---       #337
      01000CCAH   LINE      CODE     ---       #338
      01000CF9H   LINE      CODE     ---       #339
      01000CFBH   LINE      CODE     ---       #340
      01000CFBH   LINE      CODE     ---       #341
      01000CFFH   LINE      CODE     ---       #342
      01000D06H   LINE      CODE     ---       #343
      01000D06H   LINE      CODE     ---       #344
      01000D08H   LINE      CODE     ---       #345
      01000D0FH   LINE      CODE     ---       #346
      01000D0FH   LINE      CODE     ---       #347
      01000D12H   LINE      CODE     ---       #348
      01000D14H   LINE      CODE     ---       #350
      01000D14H   LINE      CODE     ---       #351
      01000D1AH   LINE      CODE     ---       #352
      01000D1AH   LINE      CODE     ---       #353
      01000D1CH   LINE      CODE     ---       #354
      01000D1CH   LINE      CODE     ---       #355
      01000D1CH   LINE      CODE     ---       #356
      01000D1CH   LINE      CODE     ---       #358
      01000D1FH   LINE      CODE     ---       #359
      01000D1FH   LINE      CODE     ---       #360
      01000D35H   LINE      CODE     ---       #361
      01000D35H   LINE      CODE     ---       #362
      01000D43H   LINE      CODE     ---       #363
      01000D45H   LINE      CODE     ---       #365
      01000D45H   LINE      CODE     ---       #366
      01000D4DH   LINE      CODE     ---       #367
      01000D4DH   LINE      CODE     ---       #368
      01000D4FH   LINE      CODE     ---       #370
      01000D4FH   LINE      CODE     ---       #372
      01000D5DH   LINE      CODE     ---       #373
      01000D69H   LINE      CODE     ---       #374
      01000D69H   LINE      CODE     ---       #376
      01000D7BH   LINE      CODE     ---       #377
      01000D7BH   LINE      CODE     ---       #378
      01000D7EH   LINE      CODE     ---       #379
      01000D86H   LINE      CODE     ---       #380
      01000D86H   LINE      CODE     ---       #382
      01000D97H   LINE      CODE     ---       #383
      01000D97H   LINE      CODE     ---       #384
      01000D9AH   LINE      CODE     ---       #385
      01000DA0H   LINE      CODE     ---       #386
      01000DA8H   LINE      CODE     ---       #387
      01000DA8H   LINE      CODE     ---       #388
      01000DAAH   LINE      CODE     ---       #390
      01000DAAH   LINE      CODE     ---       #391
      01000DB7H   LINE      CODE     ---       #392
      01000DB7H   LINE      CODE     ---       #394
      01000DBFH   LINE      CODE     ---       #395
      ---         BLOCKEND  ---      ---       LVL=0

      01001D80H   BLOCK     CODE     ---       LVL=0
      01001D80H   LINE      CODE     ---       #404
      01001D9DH   LINE      CODE     ---       #406
      01001DA0H   LINE      CODE     ---       #407
      ---         BLOCKEND  ---      ---       LVL=0

      ---         MODULE    ---      ---       SENSORMETHOD
      0200008CH   PUBLIC    XDATA    BYTE      IsInNosicValue
      0200008BH   PUBLIC    XDATA    BYTE      CurrentIndex
      0000002AH   PUBLIC    DATA     BYTE      CurrentChannelMax
      00000020H.3 PUBLIC    BIT      BIT       bNeedUpdate
      0200008AH   PUBLIC    XDATA    BYTE      MultipleDealIndex
LX51 LINKER/LOCATER V4.66.87.0                                                        12/09/2024  11:33:43  PAGE 55


      00000026H   PUBLIC    DATA     DWORD     KeyMark
      00000020H.2 PUBLIC    BIT      BIT       bMultiple
      02000088H   PUBLIC    XDATA    WORD      FlowFingerRoundCnt
      00000022H   PUBLIC    DATA     DWORD     KeyFlag
      02000086H   PUBLIC    XDATA    WORD      ScanTime
      02000085H   PUBLIC    XDATA    BYTE      FlowFingerRoundIndex
      01000DC0H   PUBLIC    CODE     ---       _MultipleDeal
      01001DBBH   PUBLIC    CODE     ---       InitializeSensorFlag
      0100003EH   PUBLIC    CODE     ---       SetNeedUpdateBaseline
      01000036H   PUBLIC    CODE     ---       GetIsNeedUpdateBaseline
      01000FECH   PUBLIC    CODE     ---       _FilterDataDeal
      01001FBCH   PUBLIC    CODE     ---       FilterIIRInit
      0100051FH   PUBLIC    CODE     ---       _SensorRenovate
      01001DF6H   PUBLIC    CODE     ---       SensorKeyFlag
      01001F4DH   PUBLIC    CODE     ---       InitializeBaselines
      0100181CH   PUBLIC    CODE     ---       FilterAvergeDeal
      01001EC7H   PUBLIC    CODE     ---       FilterCommCode
      0100002EH   PUBLIC    CODE     ---       TouchKeyRestart
      0100169EH   PUBLIC    CODE     ---       TouchKeyInit
      010017A2H   PUBLIC    CODE     ---       TouchKey_Service
      01001722H   PUBLIC    CODE     ---       _ICHAAdjust
      01001590H   PUBLIC    CODE     ---       Usdelay

      0100094BH   BLOCK     CODE     ---       LVL=0
      ---         BLOCKEND  ---      ---       LVL=0

      01001590H   BLOCK     CODE     ---       LVL=0
      01001590H   BLOCK     CODE     NEAR LAB  LVL=1
      00000007H   SYMBOL    DATA     VOID      CTM0_SCLKS
      00000001H   SYMBOL    DATA     VOID      temp
      0200005CH   SYMBOL    XDATA    VOID      delay
      ---         BLOCKEND  ---      ---       LVL=1
      ---         BLOCKEND  ---      ---       LVL=0

      01001722H   BLOCK     CODE     ---       LVL=0
      01001727H   BLOCK     CODE     NEAR LAB  LVL=1
      02000065H   SYMBOL    XDATA    VOID      icha_set
      ---         BLOCKEND  ---      ---       LVL=1
      ---         BLOCKEND  ---      ---       LVL=0

      010017A2H   BLOCK     CODE     ---       LVL=0
      010017A2H   BLOCK     CODE     NEAR LAB  LVL=1
      00000021H.1 SYMBOL    BIT      VOID      Scanflag
      ---         BLOCKEND  ---      ---       LVL=1
      ---         BLOCKEND  ---      ---       LVL=0

      0100169EH   BLOCK     CODE     ---       LVL=0
      ---         BLOCKEND  ---      ---       LVL=0

      0100002EH   BLOCK     CODE     ---       LVL=0
      ---         BLOCKEND  ---      ---       LVL=0

      01001EC7H   BLOCK     CODE     ---       LVL=0
      01001EC7H   BLOCK     CODE     NEAR LAB  LVL=1
      00000006H   SYMBOL    DATA     VOID      times
      ---         BLOCKEND  ---      ---       LVL=1
      ---         BLOCKEND  ---      ---       LVL=0

      0100181CH   BLOCK     CODE     ---       LVL=0
      0100181CH   BLOCK     CODE     NEAR LAB  LVL=1
      0200005AH   SYMBOL    XDATA    VOID      t
      0200005BH   SYMBOL    XDATA    VOID      i
      ---         BLOCKEND  ---      ---       LVL=1
      ---         BLOCKEND  ---      ---       LVL=0

LX51 LINKER/LOCATER V4.66.87.0                                                        12/09/2024  11:33:43  PAGE 56


      01001F4DH   BLOCK     CODE     ---       LVL=0
      01001F4DH   BLOCK     CODE     NEAR LAB  LVL=1
      00000007H   SYMBOL    DATA     VOID      i
      ---         BLOCKEND  ---      ---       LVL=1
      ---         BLOCKEND  ---      ---       LVL=0

      01001DF6H   BLOCK     CODE     ---       LVL=0
      01001DF6H   BLOCK     CODE     NEAR LAB  LVL=1
      0200005AH   SYMBOL    XDATA    VOID      i
      ---         BLOCKEND  ---      ---       LVL=1
      ---         BLOCKEND  ---      ---       LVL=0

      0100051FH   BLOCK     CODE     ---       LVL=0
      01000524H   BLOCK     CODE     NEAR LAB  LVL=1
      0200005CH   SYMBOL    XDATA    VOID      differData
      0200005EH   SYMBOL    XDATA    VOID      result
      0200005FH   SYMBOL    XDATA    VOID      j
      02000060H   SYMBOL    XDATA    VOID      RealConfirmTouchCnt
      02000061H   SYMBOL    XDATA    VOID      SetFingerThresholdtmp
      02000063H   SYMBOL    XDATA    VOID      testcount
      ---         BLOCKEND  ---      ---       LVL=1
      ---         BLOCKEND  ---      ---       LVL=0

      01001FBCH   BLOCK     CODE     ---       LVL=0
      01001FBCH   BLOCK     CODE     NEAR LAB  LVL=1
      00000007H   SYMBOL    DATA     VOID      i
      ---         BLOCKEND  ---      ---       LVL=1
      ---         BLOCKEND  ---      ---       LVL=0

      01000FECH   BLOCK     CODE     ---       LVL=0
      01000FF2H   BLOCK     CODE     NEAR LAB  LVL=1
      0200005DH   SYMBOL    XDATA    VOID      FilterTemp
      00000004H   SYMBOL    DATA     VOID      SetFingerThresholdtmp
      ---         BLOCKEND  ---      ---       LVL=1
      ---         BLOCKEND  ---      ---       LVL=0

      01000036H   BLOCK     CODE     ---       LVL=0
      ---         BLOCKEND  ---      ---       LVL=0

      0100003EH   BLOCK     CODE     ---       LVL=0
      ---         BLOCKEND  ---      ---       LVL=0

      01001DBBH   BLOCK     CODE     ---       LVL=0
      01001DBBH   BLOCK     CODE     NEAR LAB  LVL=1
      00000007H   SYMBOL    DATA     VOID      i
      ---         BLOCKEND  ---      ---       LVL=1
      ---         BLOCKEND  ---      ---       LVL=0

      01000DC0H   BLOCK     CODE     ---       LVL=0
      01000DC5H   BLOCK     CODE     NEAR LAB  LVL=1
      02000084H   SYMBOL    XDATA    VOID      InitSensorCnt
      00000004H   SYMBOL    DATA     VOID      FilterTemp
      0200005BH   SYMBOL    XDATA    VOID      t
      ---         BLOCKEND  ---      ---       LVL=1
      ---         BLOCKEND  ---      ---       LVL=0

      ---         MODULE    ---      ---       RINGBUFFER_C51
      010011BBH   PUBLIC    CODE     ---       _ringBuffer_push
      020000B7H   PUBLIC    XDATA    BYTE      ?_ringBuffer_pop?BYTE
      010010DCH   PUBLIC    CODE     ---       _ringBuffer_pop
      01001BFDH   PUBLIC    CODE     ---       _is_ringBuffer_empty
      010019F3H   PUBLIC    CODE     ---       _is_ringBuffer_full
      0200008DH   PUBLIC    XDATA    BYTE      ?_ringBuffer_init?BYTE
      01000EF2H   PUBLIC    CODE     ---       _ringBuffer_init
      000000FFH   SFRSYM    DATA     BYTE      OPREG
LX51 LINKER/LOCATER V4.66.87.0                                                        12/09/2024  11:33:43  PAGE 57


      00000080H   SFRSYM    DATA     BYTE      P0
      0000009FH   SFRSYM    DATA     BYTE      SSDAT
      00000090H   SFRSYM    DATA     BYTE      P1
      000000A0H   SFRSYM    DATA     BYTE      P2
      000000A8H.4 SFRSYM    DATA     BIT       EUART
      0000008EH   SFRSYM    DATA     BYTE      TMCON
      000000D0H.6 SFRSYM    DATA     BIT       AC
      0000008FH   SFRSYM    DATA     BYTE      OTCON
      000000D8H   SFRSYM    DATA     BYTE      P5
      000000A8H.7 SFRSYM    DATA     BIT       EA
      000000C8H.1 SFRSYM    DATA     BIT       T2
      000000A8H.6 SFRSYM    DATA     BIT       EADC
      000000A8H   SFRSYM    DATA     BYTE      IE
      000000E9H   SFRSYM    DATA     BYTE      EXA0
      000000FEH   SFRSYM    DATA     BYTE      OPINX
      000000EAH   SFRSYM    DATA     BYTE      EXA1
      000000EBH   SFRSYM    DATA     BYTE      EXA2
      000000ECH   SFRSYM    DATA     BYTE      EXA3
      000000C8H.0 SFRSYM    DATA     BIT       CP
      000000C8H.6 SFRSYM    DATA     BIT       EXF2
      000000D5H   SFRSYM    DATA     BYTE      PWMDTY0
      000000EFH   SFRSYM    DATA     BYTE      OPERCON
      000000D6H   SFRSYM    DATA     BYTE      PWMDTY1
      0000009BH   SFRSYM    DATA     BYTE      P0PH
      000000B8H   SFRSYM    DATA     BYTE      IP
      000000D7H   SFRSYM    DATA     BYTE      PWMDTY2
      00000092H   SFRSYM    DATA     BYTE      P1PH
      00000098H.0 SFRSYM    DATA     BIT       RI
      000000DDH   SFRSYM    DATA     BYTE      PWMDTY3
      000000A2H   SFRSYM    DATA     BYTE      P2PH
      000000D0H.7 SFRSYM    DATA     BIT       CY
      000000DEH   SFRSYM    DATA     BYTE      PWMDTY4
      00000098H.1 SFRSYM    DATA     BIT       TI
      000000DFH   SFRSYM    DATA     BYTE      PWMDTY5
      000000B8H.1 SFRSYM    DATA     BIT       IPT0
      000000DAH   SFRSYM    DATA     BYTE      P5PH
      000000B8H.3 SFRSYM    DATA     BIT       IPT1
      000000B8H.5 SFRSYM    DATA     BIT       IPT2
      000000CBH   SFRSYM    DATA     BYTE      RCAP2H
      00000081H   SFRSYM    DATA     BYTE      SP
      000000D0H.2 SFRSYM    DATA     BIT       OV
      000000F4H   SFRSYM    DATA     BYTE      IAPADE
      000000CAH   SFRSYM    DATA     BYTE      RCAP2L
      0000009CH   SFRSYM    DATA     BYTE      P0VO
      000000EEH   SFRSYM    DATA     BYTE      EXBH
      000000F3H   SFRSYM    DATA     BYTE      IAPADH
      000000D4H   SFRSYM    DATA     BYTE      PWMDTYA
      000000DCH   SFRSYM    DATA     BYTE      PWMDTYB
      000000ADH   SFRSYM    DATA     BYTE      ADCCON
      000000EDH   SFRSYM    DATA     BYTE      EXBL
      000000C8H.5 SFRSYM    DATA     BIT       RCLK
      000000F2H   SFRSYM    DATA     BYTE      IAPADL
      000000C8H.4 SFRSYM    DATA     BIT       TCLK
      00000080H.0 SFRSYM    DATA     BIT       P00
      00000090H.0 SFRSYM    DATA     BIT       P10
      00000080H.1 SFRSYM    DATA     BIT       P01
      00000099H   SFRSYM    DATA     BYTE      SBUF
      00000087H   SFRSYM    DATA     BYTE      PCON
      000000A0H.0 SFRSYM    DATA     BIT       P20
      00000090H.1 SFRSYM    DATA     BIT       P11
      00000080H.2 SFRSYM    DATA     BIT       P02
      000000A0H.1 SFRSYM    DATA     BIT       P21
      00000090H.2 SFRSYM    DATA     BIT       P12
      00000080H.3 SFRSYM    DATA     BIT       P03
      000000A0H.2 SFRSYM    DATA     BIT       P22
LX51 LINKER/LOCATER V4.66.87.0                                                        12/09/2024  11:33:43  PAGE 58


      00000090H.3 SFRSYM    DATA     BIT       P13
      00000080H.4 SFRSYM    DATA     BIT       P04
      00000098H   SFRSYM    DATA     BYTE      SCON
      000000D8H.0 SFRSYM    DATA     BIT       P50
      000000A0H.3 SFRSYM    DATA     BIT       P23
      00000090H.4 SFRSYM    DATA     BIT       P14
      00000080H.5 SFRSYM    DATA     BIT       P05
      000000F5H   SFRSYM    DATA     BYTE      IAPDAT
      00000089H   SFRSYM    DATA     BYTE      TMOD
      00000088H   SFRSYM    DATA     BYTE      TCON
      000000D8H.1 SFRSYM    DATA     BIT       P51
      000000A0H.4 SFRSYM    DATA     BIT       P24
      00000090H.5 SFRSYM    DATA     BIT       P15
      00000080H.6 SFRSYM    DATA     BIT       P06
      000000B8H.0 SFRSYM    DATA     BIT       IPINT0
      000000A0H.5 SFRSYM    DATA     BIT       P25
      00000090H.6 SFRSYM    DATA     BIT       P16
      00000080H.7 SFRSYM    DATA     BIT       P07
      000000B8H.2 SFRSYM    DATA     BIT       IPINT1
      000000A0H.6 SFRSYM    DATA     BIT       P26
      00000090H.7 SFRSYM    DATA     BIT       P17
      0000009DH   SFRSYM    DATA     BYTE      SSCON0
      000000A0H.7 SFRSYM    DATA     BIT       P27
      0000009EH   SFRSYM    DATA     BYTE      SSCON1
      00000095H   SFRSYM    DATA     BYTE      SSCON2
      000000F6H   SFRSYM    DATA     BYTE      IAPCTL
      000000A9H   SFRSYM    DATA     BYTE      IE1
      000000F0H   SFRSYM    DATA     BYTE      B
      00000097H   SFRSYM    DATA     BYTE      IOHCON
      000000F1H   SFRSYM    DATA     BYTE      IAPKEY
      000000CEH   SFRSYM    DATA     BYTE      BTMCON
      000000D1H   SFRSYM    DATA     BYTE      PWMCFG
      000000E0H   SFRSYM    DATA     BYTE      ACC
      000000A8H.1 SFRSYM    DATA     BIT       ET0
      00000088H.5 SFRSYM    DATA     BIT       TF0
      000000A8H.3 SFRSYM    DATA     BIT       ET1
      000000ABH   SFRSYM    DATA     BYTE      ADCCFG0
      000000B9H   SFRSYM    DATA     BYTE      IP1
      00000088H.7 SFRSYM    DATA     BIT       TF1
      000000A8H.5 SFRSYM    DATA     BIT       ET2
      000000ACH   SFRSYM    DATA     BYTE      ADCCFG1
      00000098H.2 SFRSYM    DATA     BIT       RB8
      000000C8H.7 SFRSYM    DATA     BIT       TF2
      000000AAH   SFRSYM    DATA     BYTE      ADCCFG2
      0000008CH   SFRSYM    DATA     BYTE      TH0
      0000008DH   SFRSYM    DATA     BYTE      TH1
      00000098H.3 SFRSYM    DATA     BIT       TB8
      000000CDH   SFRSYM    DATA     BYTE      TH2
      000000D0H.0 SFRSYM    DATA     BIT       P
      00000098H.7 SFRSYM    DATA     BIT       SM0
      0000008AH   SFRSYM    DATA     BYTE      TL0
      00000098H.6 SFRSYM    DATA     BIT       SM1
      000000CFH   SFRSYM    DATA     BYTE      WDTCON
      0000008BH   SFRSYM    DATA     BYTE      TL1
      00000098H.5 SFRSYM    DATA     BIT       SM2
      000000CCH   SFRSYM    DATA     BYTE      TL2
      000000D0H.3 SFRSYM    DATA     BIT       RS0
      00000088H.4 SFRSYM    DATA     BIT       TR0
      000000D0H.4 SFRSYM    DATA     BIT       RS1
      000000D2H   SFRSYM    DATA     BYTE      PWMCON
      00000088H.6 SFRSYM    DATA     BIT       TR1
      000000B8H.4 SFRSYM    DATA     BIT       IPUART
      000000C8H.2 SFRSYM    DATA     BIT       TR2
      000000D3H   SFRSYM    DATA     BYTE      PWMPRD
      00000083H   SFRSYM    DATA     BYTE      DPH
LX51 LINKER/LOCATER V4.66.87.0                                                        12/09/2024  11:33:43  PAGE 59


      00000082H   SFRSYM    DATA     BYTE      DPL
      000000A8H.0 SFRSYM    DATA     BIT       EINT0
      0000009AH   SFRSYM    DATA     BYTE      P0CON
      000000A8H.2 SFRSYM    DATA     BIT       EINT1
      000000B8H.6 SFRSYM    DATA     BIT       IPADC
      000000BAH   SFRSYM    DATA     BYTE      INT0F
      00000091H   SFRSYM    DATA     BYTE      P1CON
      000000C8H.3 SFRSYM    DATA     BIT       EXEN2
      000000BCH   SFRSYM    DATA     BYTE      INT1F
      000000A1H   SFRSYM    DATA     BYTE      P2CON
      000000C6H   SFRSYM    DATA     BYTE      INT2F
      00000098H.4 SFRSYM    DATA     BIT       REN
      000000D9H   SFRSYM    DATA     BYTE      P5CON
      000000AFH   SFRSYM    DATA     BYTE      ADCVH
      000000C9H   SFRSYM    DATA     BYTE      T2MOD
      000000C8H   SFRSYM    DATA     BYTE      T2CON
      000000AEH   SFRSYM    DATA     BYTE      ADCVL
      000000F7H   SFRSYM    DATA     BYTE      EXADH
      000000BBH   SFRSYM    DATA     BYTE      INT0R
      000000BDH   SFRSYM    DATA     BYTE      INT1R
      000000C7H   SFRSYM    DATA     BYTE      INT2R
      000000D0H.5 SFRSYM    DATA     BIT       F0
      000000D0H.1 SFRSYM    DATA     BIT       F1
      000000D0H   SFRSYM    DATA     BYTE      PSW

      01000EF2H   BLOCK     CODE     ---       LVL=0
      0200008DH   SYMBOL    XDATA    ---       rb
      02000090H   SYMBOL    XDATA    INT       size1
      02000092H   SYMBOL    XDATA    ---       new_buffer
      01000EF2H   LINE      CODE     ---       #6
      01000F05H   LINE      CODE     ---       #7
      01000F05H   LINE      CODE     ---       #9
      01000F32H   LINE      CODE     ---       #10
      01000F32H   LINE      CODE     ---       #12
      01000F32H   LINE      CODE     ---       #13
      01000F57H   LINE      CODE     ---       #14
      01000F8AH   LINE      CODE     ---       #15
      01000F8AH   LINE      CODE     ---       #17
      01000F8AH   LINE      CODE     ---       #18
      01000FA9H   LINE      CODE     ---       #19
      01000FBBH   LINE      CODE     ---       #20
      01000FD3H   LINE      CODE     ---       #21
      01000FEBH   LINE      CODE     ---       #23
      ---         BLOCKEND  ---      ---       LVL=0
      020000EBH   SYMBOL    XDATA    ---       rb

      010019F3H   BLOCK     CODE     ---       LVL=0
      020000EEH   SYMBOL    XDATA    ---       rb
      010019F3H   LINE      CODE     ---       #37
      010019FEH   LINE      CODE     ---       #38
      010019FEH   LINE      CODE     ---       #40
      01001A50H   LINE      CODE     ---       #41
      01001A55H   LINE      CODE     ---       #43
      01001A5AH   LINE      CODE     ---       #44
      ---         BLOCKEND  ---      ---       LVL=0

      01001BFDH   BLOCK     CODE     ---       LVL=0
      020000F1H   SYMBOL    XDATA    ---       rb
      01001BFDH   LINE      CODE     ---       #46
      01001C08H   LINE      CODE     ---       #47
      01001C08H   LINE      CODE     ---       #48
      01001C38H   LINE      CODE     ---       #49
      01001C38H   LINE      CODE     ---       #52
      01001C3DH   LINE      CODE     ---       #53
      01001C3DH   LINE      CODE     ---       #55
LX51 LINKER/LOCATER V4.66.87.0                                                        12/09/2024  11:33:43  PAGE 60


      01001C42H   LINE      CODE     ---       #56
      ---         BLOCKEND  ---      ---       LVL=0

      010010DCH   BLOCK     CODE     ---       LVL=0
      020000B7H   SYMBOL    XDATA    ---       rb
      020000BAH   SYMBOL    XDATA    ---       ch
      010010DCH   LINE      CODE     ---       #58
      010010E7H   LINE      CODE     ---       #59
      010010E7H   LINE      CODE     ---       #60
      010010F9H   LINE      CODE     ---       #61
      010010F9H   LINE      CODE     ---       #62
      010010FFH   LINE      CODE     ---       #63
      010010FFH   LINE      CODE     ---       #64
      0100114DH   LINE      CODE     ---       #65
      0100119DH   LINE      CODE     ---       #66
      010011B6H   LINE      CODE     ---       #67
      010011BAH   LINE      CODE     ---       #68
      ---         BLOCKEND  ---      ---       LVL=0

      010011BBH   BLOCK     CODE     ---       LVL=0
      020000DEH   SYMBOL    XDATA    ---       rb
      020000E1H   SYMBOL    XDATA    CHAR      ch
      010011BBH   LINE      CODE     ---       #70
      010011CBH   LINE      CODE     ---       #71
      010011CBH   LINE      CODE     ---       #72
      010011DDH   LINE      CODE     ---       #73
      010011DDH   LINE      CODE     ---       #74
      010011E3H   LINE      CODE     ---       #75
      010011E3H   LINE      CODE     ---       #76
      01001221H   LINE      CODE     ---       #77
      01001265H   LINE      CODE     ---       #78
      0100127DH   LINE      CODE     ---       #80
      01001281H   LINE      CODE     ---       #81
      ---         BLOCKEND  ---      ---       LVL=0
      020000F4H   SYMBOL    XDATA    ---       rb

      ---         MODULE    ---      ---       PROJECT
      02000035H   PUBLIC    XDATA    ---       Uart1_TxData
      02000034H   PUBLIC    XDATA    BYTE      SwitchFlag
      0200002DH   PUBLIC    XDATA    ---       com_data1
      0200002CH   PUBLIC    XDATA    BYTE      RadarFlag
      00000020H.5 PUBLIC    BIT      BIT       ChangeFlag
      00000020H.4 PUBLIC    BIT      BIT       BreatheLED
      01001619H   PUBLIC    CODE     ---       project
      01001F6CH   PUBLIC    CODE     ---       Radar_work
      01000AF5H   PUBLIC    CODE     ---       _loop_recv_comunicate_data
      01001AB4H   PUBLIC    CODE     ---       loop_write_comunicate_data
      01001895H   PUBLIC    CODE     ---       _handle_tft2mcu_datacheck
      01001980H   PUBLIC    CODE     ---       _handle_mcu2tft_data
      0100190CH   PUBLIC    CODE     ---       _handle_tft2mcu_data
      000000FFH   SFRSYM    DATA     BYTE      OPREG
      00000080H   SFRSYM    DATA     BYTE      P0
      0000009FH   SFRSYM    DATA     BYTE      SSDAT
      00000090H   SFRSYM    DATA     BYTE      P1
      000000A0H   SFRSYM    DATA     BYTE      P2
      000000A8H.4 SFRSYM    DATA     BIT       EUART
      0000008EH   SFRSYM    DATA     BYTE      TMCON
      000000D0H.6 SFRSYM    DATA     BIT       AC
      0000008FH   SFRSYM    DATA     BYTE      OTCON
      000000D8H   SFRSYM    DATA     BYTE      P5
      000000A8H.7 SFRSYM    DATA     BIT       EA
      000000C8H.1 SFRSYM    DATA     BIT       T2
      000000A8H.6 SFRSYM    DATA     BIT       EADC
      000000A8H   SFRSYM    DATA     BYTE      IE
      000000E9H   SFRSYM    DATA     BYTE      EXA0
LX51 LINKER/LOCATER V4.66.87.0                                                        12/09/2024  11:33:43  PAGE 61


      000000FEH   SFRSYM    DATA     BYTE      OPINX
      000000EAH   SFRSYM    DATA     BYTE      EXA1
      000000EBH   SFRSYM    DATA     BYTE      EXA2
      000000ECH   SFRSYM    DATA     BYTE      EXA3
      000000C8H.0 SFRSYM    DATA     BIT       CP
      000000C8H.6 SFRSYM    DATA     BIT       EXF2
      000000D5H   SFRSYM    DATA     BYTE      PWMDTY0
      000000EFH   SFRSYM    DATA     BYTE      OPERCON
      000000D6H   SFRSYM    DATA     BYTE      PWMDTY1
      0000009BH   SFRSYM    DATA     BYTE      P0PH
      000000B8H   SFRSYM    DATA     BYTE      IP
      000000D7H   SFRSYM    DATA     BYTE      PWMDTY2
      00000092H   SFRSYM    DATA     BYTE      P1PH
      00000098H.0 SFRSYM    DATA     BIT       RI
      000000DDH   SFRSYM    DATA     BYTE      PWMDTY3
      000000A2H   SFRSYM    DATA     BYTE      P2PH
      000000D0H.7 SFRSYM    DATA     BIT       CY
      000000DEH   SFRSYM    DATA     BYTE      PWMDTY4
      00000098H.1 SFRSYM    DATA     BIT       TI
      000000DFH   SFRSYM    DATA     BYTE      PWMDTY5
      000000B8H.1 SFRSYM    DATA     BIT       IPT0
      000000DAH   SFRSYM    DATA     BYTE      P5PH
      000000B8H.3 SFRSYM    DATA     BIT       IPT1
      000000B8H.5 SFRSYM    DATA     BIT       IPT2
      000000CBH   SFRSYM    DATA     BYTE      RCAP2H
      00000081H   SFRSYM    DATA     BYTE      SP
      000000D0H.2 SFRSYM    DATA     BIT       OV
      000000F4H   SFRSYM    DATA     BYTE      IAPADE
      000000CAH   SFRSYM    DATA     BYTE      RCAP2L
      0000009CH   SFRSYM    DATA     BYTE      P0VO
      000000EEH   SFRSYM    DATA     BYTE      EXBH
      000000F3H   SFRSYM    DATA     BYTE      IAPADH
      000000D4H   SFRSYM    DATA     BYTE      PWMDTYA
      000000DCH   SFRSYM    DATA     BYTE      PWMDTYB
      000000ADH   SFRSYM    DATA     BYTE      ADCCON
      000000EDH   SFRSYM    DATA     BYTE      EXBL
      000000C8H.5 SFRSYM    DATA     BIT       RCLK
      000000F2H   SFRSYM    DATA     BYTE      IAPADL
      000000C8H.4 SFRSYM    DATA     BIT       TCLK
      00000080H.0 SFRSYM    DATA     BIT       P00
      00000090H.0 SFRSYM    DATA     BIT       P10
      00000080H.1 SFRSYM    DATA     BIT       P01
      00000099H   SFRSYM    DATA     BYTE      SBUF
      00000087H   SFRSYM    DATA     BYTE      PCON
      000000A0H.0 SFRSYM    DATA     BIT       P20
      00000090H.1 SFRSYM    DATA     BIT       P11
      00000080H.2 SFRSYM    DATA     BIT       P02
      000000A0H.1 SFRSYM    DATA     BIT       P21
      00000090H.2 SFRSYM    DATA     BIT       P12
      00000080H.3 SFRSYM    DATA     BIT       P03
      000000A0H.2 SFRSYM    DATA     BIT       P22
      00000090H.3 SFRSYM    DATA     BIT       P13
      00000080H.4 SFRSYM    DATA     BIT       P04
      00000098H   SFRSYM    DATA     BYTE      SCON
      000000D8H.0 SFRSYM    DATA     BIT       P50
      000000A0H.3 SFRSYM    DATA     BIT       P23
      00000090H.4 SFRSYM    DATA     BIT       P14
      00000080H.5 SFRSYM    DATA     BIT       P05
      000000F5H   SFRSYM    DATA     BYTE      IAPDAT
      00000089H   SFRSYM    DATA     BYTE      TMOD
      00000088H   SFRSYM    DATA     BYTE      TCON
      000000D8H.1 SFRSYM    DATA     BIT       P51
      000000A0H.4 SFRSYM    DATA     BIT       P24
      00000090H.5 SFRSYM    DATA     BIT       P15
      00000080H.6 SFRSYM    DATA     BIT       P06
LX51 LINKER/LOCATER V4.66.87.0                                                        12/09/2024  11:33:43  PAGE 62


      000000B8H.0 SFRSYM    DATA     BIT       IPINT0
      000000A0H.5 SFRSYM    DATA     BIT       P25
      00000090H.6 SFRSYM    DATA     BIT       P16
      00000080H.7 SFRSYM    DATA     BIT       P07
      000000B8H.2 SFRSYM    DATA     BIT       IPINT1
      000000A0H.6 SFRSYM    DATA     BIT       P26
      00000090H.7 SFRSYM    DATA     BIT       P17
      0000009DH   SFRSYM    DATA     BYTE      SSCON0
      000000A0H.7 SFRSYM    DATA     BIT       P27
      0000009EH   SFRSYM    DATA     BYTE      SSCON1
      00000095H   SFRSYM    DATA     BYTE      SSCON2
      000000F6H   SFRSYM    DATA     BYTE      IAPCTL
      000000A9H   SFRSYM    DATA     BYTE      IE1
      000000F0H   SFRSYM    DATA     BYTE      B
      00000097H   SFRSYM    DATA     BYTE      IOHCON
      000000F1H   SFRSYM    DATA     BYTE      IAPKEY
      000000CEH   SFRSYM    DATA     BYTE      BTMCON
      000000D1H   SFRSYM    DATA     BYTE      PWMCFG
      000000E0H   SFRSYM    DATA     BYTE      ACC
      000000A8H.1 SFRSYM    DATA     BIT       ET0
      00000088H.5 SFRSYM    DATA     BIT       TF0
      000000A8H.3 SFRSYM    DATA     BIT       ET1
      000000ABH   SFRSYM    DATA     BYTE      ADCCFG0
      000000B9H   SFRSYM    DATA     BYTE      IP1
      00000088H.7 SFRSYM    DATA     BIT       TF1
      000000A8H.5 SFRSYM    DATA     BIT       ET2
      000000ACH   SFRSYM    DATA     BYTE      ADCCFG1
      00000098H.2 SFRSYM    DATA     BIT       RB8
      000000C8H.7 SFRSYM    DATA     BIT       TF2
      000000AAH   SFRSYM    DATA     BYTE      ADCCFG2
      0000008CH   SFRSYM    DATA     BYTE      TH0
      0000008DH   SFRSYM    DATA     BYTE      TH1
      00000098H.3 SFRSYM    DATA     BIT       TB8
      000000CDH   SFRSYM    DATA     BYTE      TH2
      000000D0H.0 SFRSYM    DATA     BIT       P
      00000098H.7 SFRSYM    DATA     BIT       SM0
      0000008AH   SFRSYM    DATA     BYTE      TL0
      00000098H.6 SFRSYM    DATA     BIT       SM1
      000000CFH   SFRSYM    DATA     BYTE      WDTCON
      0000008BH   SFRSYM    DATA     BYTE      TL1
      00000098H.5 SFRSYM    DATA     BIT       SM2
      000000CCH   SFRSYM    DATA     BYTE      TL2
      000000D0H.3 SFRSYM    DATA     BIT       RS0
      00000088H.4 SFRSYM    DATA     BIT       TR0
      000000D0H.4 SFRSYM    DATA     BIT       RS1
      000000D2H   SFRSYM    DATA     BYTE      PWMCON
      00000088H.6 SFRSYM    DATA     BIT       TR1
      000000B8H.4 SFRSYM    DATA     BIT       IPUART
      000000C8H.2 SFRSYM    DATA     BIT       TR2
      000000D3H   SFRSYM    DATA     BYTE      PWMPRD
      00000083H   SFRSYM    DATA     BYTE      DPH
      00000082H   SFRSYM    DATA     BYTE      DPL
      000000A8H.0 SFRSYM    DATA     BIT       EINT0
      0000009AH   SFRSYM    DATA     BYTE      P0CON
      000000A8H.2 SFRSYM    DATA     BIT       EINT1
      000000B8H.6 SFRSYM    DATA     BIT       IPADC
      000000BAH   SFRSYM    DATA     BYTE      INT0F
      00000091H   SFRSYM    DATA     BYTE      P1CON
      000000C8H.3 SFRSYM    DATA     BIT       EXEN2
      000000BCH   SFRSYM    DATA     BYTE      INT1F
      000000A1H   SFRSYM    DATA     BYTE      P2CON
      000000C6H   SFRSYM    DATA     BYTE      INT2F
      00000098H.4 SFRSYM    DATA     BIT       REN
      000000D9H   SFRSYM    DATA     BYTE      P5CON
      000000AFH   SFRSYM    DATA     BYTE      ADCVH
LX51 LINKER/LOCATER V4.66.87.0                                                        12/09/2024  11:33:43  PAGE 63


      000000C9H   SFRSYM    DATA     BYTE      T2MOD
      000000C8H   SFRSYM    DATA     BYTE      T2CON
      000000AEH   SFRSYM    DATA     BYTE      ADCVL
      000000F7H   SFRSYM    DATA     BYTE      EXADH
      000000BBH   SFRSYM    DATA     BYTE      INT0R
      000000BDH   SFRSYM    DATA     BYTE      INT1R
      000000C7H   SFRSYM    DATA     BYTE      INT2R
      000000D0H.5 SFRSYM    DATA     BIT       F0
      000000D0H.1 SFRSYM    DATA     BIT       F1
      000000D0H   SFRSYM    DATA     BYTE      PSW

      0100190CH   BLOCK     CODE     ---       LVL=0
      020000F7H   SYMBOL    XDATA    ---       buf
      0100190CH   LINE      CODE     ---       #17
      01001917H   LINE      CODE     ---       #19
      01001933H   LINE      CODE     ---       #20
      01001936H   LINE      CODE     ---       #21
      01001938H   LINE      CODE     ---       #22
      01001957H   LINE      CODE     ---       #23
      0100195AH   LINE      CODE     ---       #24
      0100195CH   LINE      CODE     ---       #25
      0100197BH   LINE      CODE     ---       #26
      0100197DH   LINE      CODE     ---       #27
      0100197DH   LINE      CODE     ---       #29
      0100197FH   LINE      CODE     ---       #30
      ---         BLOCKEND  ---      ---       LVL=0

      01001980H   BLOCK     CODE     ---       LVL=0
      0200009DH   SYMBOL    XDATA    ---       buf
      020000A0H   SYMBOL    XDATA    INT       len
      01001993H   BLOCK     CODE     NEAR LAB  LVL=1
      020000A2H   SYMBOL    XDATA    BYTE      i
      020000A3H   SYMBOL    XDATA    BYTE      sum
      ---         BLOCKEND  ---      ---       LVL=1
      01001980H   LINE      CODE     ---       #32
      01001993H   LINE      CODE     ---       #33
      01001993H   LINE      CODE     ---       #34
      01001998H   LINE      CODE     ---       #36
      010019C2H   LINE      CODE     ---       #37
      010019C2H   LINE      CODE     ---       #38
      010019E1H   LINE      CODE     ---       #39
      010019E9H   LINE      CODE     ---       #40
      010019F2H   LINE      CODE     ---       #42
      ---         BLOCKEND  ---      ---       LVL=0

      01001895H   BLOCK     CODE     ---       LVL=0
      020000A4H   SYMBOL    XDATA    ---       buf
      020000A7H   SYMBOL    XDATA    INT       len
      010018A8H   BLOCK     CODE     NEAR LAB  LVL=1
      020000A9H   SYMBOL    XDATA    BYTE      i
      020000AAH   SYMBOL    XDATA    BYTE      sum
      ---         BLOCKEND  ---      ---       LVL=1
      01001895H   LINE      CODE     ---       #44
      010018A8H   LINE      CODE     ---       #45
      010018A8H   LINE      CODE     ---       #46
      010018ADH   LINE      CODE     ---       #48
      010018D7H   LINE      CODE     ---       #49
      010018D7H   LINE      CODE     ---       #50
      010018F6H   LINE      CODE     ---       #51
      010018FEH   LINE      CODE     ---       #52
      0100190BH   LINE      CODE     ---       #54
      ---         BLOCKEND  ---      ---       LVL=0

      01001AB4H   BLOCK     CODE     ---       LVL=0
      01001AB4H   LINE      CODE     ---       #60
LX51 LINKER/LOCATER V4.66.87.0                                                        12/09/2024  11:33:43  PAGE 64


      01001AB4H   LINE      CODE     ---       #61
      01001AB4H   LINE      CODE     ---       #62
      01001ABAH   LINE      CODE     ---       #63
      01001AC0H   LINE      CODE     ---       #64
      01001AC6H   LINE      CODE     ---       #65
      01001ADCH   LINE      CODE     ---       #66
      01001AF2H   LINE      CODE     ---       #67
      01001B09H   LINE      CODE     ---       #69
      ---         BLOCKEND  ---      ---       LVL=0

      01000AF5H   BLOCK     CODE     ---       LVL=0
      020000FAH   SYMBOL    XDATA    ---       com_data
      01000B00H   BLOCK     CODE     NEAR LAB  LVL=1
      0200002BH   SYMBOL    XDATA    BYTE      byte_index
      ---         BLOCKEND  ---      ---       LVL=1
      01000AF5H   LINE      CODE     ---       #72
      01000B00H   LINE      CODE     ---       #73
      01000B00H   LINE      CODE     ---       #75
      01000B3FH   LINE      CODE     ---       #76
      01000B3FH   LINE      CODE     ---       #79
      01000B55H   LINE      CODE     ---       #80
      01000B55H   LINE      CODE     ---       #81
      01000B55H   LINE      CODE     ---       #82
      01000B72H   LINE      CODE     ---       #83
      01000B72H   LINE      CODE     ---       #85
      01000B78H   LINE      CODE     ---       #87
      01000B7AH   LINE      CODE     ---       #88
      01000B7FH   LINE      CODE     ---       #89
      01000B7FH   LINE      CODE     ---       #90
      01000B82H   LINE      CODE     ---       #91
      01000B82H   LINE      CODE     ---       #92
      01000B9FH   LINE      CODE     ---       #93
      01000B9FH   LINE      CODE     ---       #95
      01000BA5H   LINE      CODE     ---       #97
      01000BA8H   LINE      CODE     ---       #99
      01000BA8H   LINE      CODE     ---       #101
      01000BADH   LINE      CODE     ---       #102
      01000BADH   LINE      CODE     ---       #103
      01000BB0H   LINE      CODE     ---       #104
      01000BB0H   LINE      CODE     ---       #105
      01000BCDH   LINE      CODE     ---       #106
      01000BCDH   LINE      CODE     ---       #108
      01000BD3H   LINE      CODE     ---       #111
      01000BD6H   LINE      CODE     ---       #113
      01000BD6H   LINE      CODE     ---       #114
      01000BDBH   LINE      CODE     ---       #115
      01000BDBH   LINE      CODE     ---       #116
      01000BDEH   LINE      CODE     ---       #118
      01000BDEH   LINE      CODE     ---       #119
      01000BE4H   LINE      CODE     ---       #120
      01000C11H   LINE      CODE     ---       #121
      01000C11H   LINE      CODE     ---       #124
      01000C6CH   LINE      CODE     ---       #125
      01000C7AH   LINE      CODE     ---       #126
      01000C7AH   LINE      CODE     ---       #127
      01000C7FH   LINE      CODE     ---       #128
      01000C7FH   LINE      CODE     ---       #129
      01000C82H   LINE      CODE     ---       #130
      01000C82H   LINE      CODE     ---       #131
      01000C85H   LINE      CODE     ---       #132
      ---         BLOCKEND  ---      ---       LVL=0

      01001F6CH   BLOCK     CODE     ---       LVL=0
      01001F6CH   LINE      CODE     ---       #135
      01001F6CH   LINE      CODE     ---       #136
LX51 LINKER/LOCATER V4.66.87.0                                                        12/09/2024  11:33:43  PAGE 65


      01001F6CH   LINE      CODE     ---       #137
      01001F74H   LINE      CODE     ---       #138
      01001F7CH   LINE      CODE     ---       #139
      01001F7CH   LINE      CODE     ---       #140
      01001F82H   LINE      CODE     ---       #141
      01001F83H   LINE      CODE     ---       #143
      01001F88H   LINE      CODE     ---       #144
      ---         BLOCKEND  ---      ---       LVL=0

      01001619H   BLOCK     CODE     ---       LVL=0
      01001619H   LINE      CODE     ---       #146
      01001619H   LINE      CODE     ---       #147
      01001619H   LINE      CODE     ---       #149
      01001622H   LINE      CODE     ---       #150
      01001622H   LINE      CODE     ---       #151
      01001630H   LINE      CODE     ---       #152
      01001639H   LINE      CODE     ---       #153
      0100165DH   LINE      CODE     ---       #154
      0100165DH   LINE      CODE     ---       #155
      0100165FH   LINE      CODE     ---       #156
      01001661H   LINE      CODE     ---       #158
      01001661H   LINE      CODE     ---       #159
      01001664H   LINE      CODE     ---       #160
      01001664H   LINE      CODE     ---       #161
      01001666H   LINE      CODE     ---       #162
      0100167AH   LINE      CODE     ---       #163
      0100167AH   LINE      CODE     ---       #165
      0100167AH   LINE      CODE     ---       #166
      0100167DH   LINE      CODE     ---       #167
      01001686H   LINE      CODE     ---       #168
      01001689H   LINE      CODE     ---       #169
      01001691H   LINE      CODE     ---       #170
      01001691H   LINE      CODE     ---       #171
      0100169AH   LINE      CODE     ---       #172
      0100169AH   LINE      CODE     ---       #174
      0100169DH   LINE      CODE     ---       #176
      0100169DH   LINE      CODE     ---       #177
      ---         BLOCKEND  ---      ---       LVL=0

      ---         MODULE    ---      ---       RADAR
      0100203DH   PUBLIC    CODE     ---       Radar_init
      01002034H   PUBLIC    CODE     ---       Radar_Ischeck
      01001D07H   PUBLIC    CODE     ---       Radar_check
      0100202BH   PUBLIC    CODE     ---       Radar_open
      000000FFH   SFRSYM    DATA     BYTE      OPREG
      00000080H   SFRSYM    DATA     BYTE      P0
      0000009FH   SFRSYM    DATA     BYTE      SSDAT
      00000090H   SFRSYM    DATA     BYTE      P1
      000000A0H   SFRSYM    DATA     BYTE      P2
      000000A8H.4 SFRSYM    DATA     BIT       EUART
      0000008EH   SFRSYM    DATA     BYTE      TMCON
      000000D0H.6 SFRSYM    DATA     BIT       AC
      0000008FH   SFRSYM    DATA     BYTE      OTCON
      000000D8H   SFRSYM    DATA     BYTE      P5
      000000A8H.7 SFRSYM    DATA     BIT       EA
      000000C8H.1 SFRSYM    DATA     BIT       T2
      000000A8H.6 SFRSYM    DATA     BIT       EADC
      000000A8H   SFRSYM    DATA     BYTE      IE
      000000E9H   SFRSYM    DATA     BYTE      EXA0
      000000FEH   SFRSYM    DATA     BYTE      OPINX
      000000EAH   SFRSYM    DATA     BYTE      EXA1
      000000EBH   SFRSYM    DATA     BYTE      EXA2
      000000ECH   SFRSYM    DATA     BYTE      EXA3
      000000C8H.0 SFRSYM    DATA     BIT       CP
      000000C8H.6 SFRSYM    DATA     BIT       EXF2
LX51 LINKER/LOCATER V4.66.87.0                                                        12/09/2024  11:33:43  PAGE 66


      000000D5H   SFRSYM    DATA     BYTE      PWMDTY0
      000000EFH   SFRSYM    DATA     BYTE      OPERCON
      000000D6H   SFRSYM    DATA     BYTE      PWMDTY1
      0000009BH   SFRSYM    DATA     BYTE      P0PH
      000000B8H   SFRSYM    DATA     BYTE      IP
      000000D7H   SFRSYM    DATA     BYTE      PWMDTY2
      00000092H   SFRSYM    DATA     BYTE      P1PH
      00000098H.0 SFRSYM    DATA     BIT       RI
      000000DDH   SFRSYM    DATA     BYTE      PWMDTY3
      000000A2H   SFRSYM    DATA     BYTE      P2PH
      000000D0H.7 SFRSYM    DATA     BIT       CY
      000000DEH   SFRSYM    DATA     BYTE      PWMDTY4
      00000098H.1 SFRSYM    DATA     BIT       TI
      000000DFH   SFRSYM    DATA     BYTE      PWMDTY5
      000000B8H.1 SFRSYM    DATA     BIT       IPT0
      000000DAH   SFRSYM    DATA     BYTE      P5PH
      000000B8H.3 SFRSYM    DATA     BIT       IPT1
      000000B8H.5 SFRSYM    DATA     BIT       IPT2
      000000CBH   SFRSYM    DATA     BYTE      RCAP2H
      00000081H   SFRSYM    DATA     BYTE      SP
      000000D0H.2 SFRSYM    DATA     BIT       OV
      000000F4H   SFRSYM    DATA     BYTE      IAPADE
      000000CAH   SFRSYM    DATA     BYTE      RCAP2L
      0000009CH   SFRSYM    DATA     BYTE      P0VO
      000000EEH   SFRSYM    DATA     BYTE      EXBH
      000000F3H   SFRSYM    DATA     BYTE      IAPADH
      000000D4H   SFRSYM    DATA     BYTE      PWMDTYA
      000000DCH   SFRSYM    DATA     BYTE      PWMDTYB
      000000ADH   SFRSYM    DATA     BYTE      ADCCON
      000000EDH   SFRSYM    DATA     BYTE      EXBL
      000000C8H.5 SFRSYM    DATA     BIT       RCLK
      000000F2H   SFRSYM    DATA     BYTE      IAPADL
      000000C8H.4 SFRSYM    DATA     BIT       TCLK
      00000080H.0 SFRSYM    DATA     BIT       P00
      00000090H.0 SFRSYM    DATA     BIT       P10
      00000080H.1 SFRSYM    DATA     BIT       P01
      00000099H   SFRSYM    DATA     BYTE      SBUF
      00000087H   SFRSYM    DATA     BYTE      PCON
      000000A0H.0 SFRSYM    DATA     BIT       P20
      00000090H.1 SFRSYM    DATA     BIT       P11
      00000080H.2 SFRSYM    DATA     BIT       P02
      000000A0H.1 SFRSYM    DATA     BIT       P21
      00000090H.2 SFRSYM    DATA     BIT       P12
      00000080H.3 SFRSYM    DATA     BIT       P03
      000000A0H.2 SFRSYM    DATA     BIT       P22
      00000090H.3 SFRSYM    DATA     BIT       P13
      00000080H.4 SFRSYM    DATA     BIT       P04
      00000098H   SFRSYM    DATA     BYTE      SCON
      000000D8H.0 SFRSYM    DATA     BIT       P50
      000000A0H.3 SFRSYM    DATA     BIT       P23
      00000090H.4 SFRSYM    DATA     BIT       P14
      00000080H.5 SFRSYM    DATA     BIT       P05
      000000F5H   SFRSYM    DATA     BYTE      IAPDAT
      00000089H   SFRSYM    DATA     BYTE      TMOD
      00000088H   SFRSYM    DATA     BYTE      TCON
      000000D8H.1 SFRSYM    DATA     BIT       P51
      000000A0H.4 SFRSYM    DATA     BIT       P24
      00000090H.5 SFRSYM    DATA     BIT       P15
      00000080H.6 SFRSYM    DATA     BIT       P06
      000000B8H.0 SFRSYM    DATA     BIT       IPINT0
      000000A0H.5 SFRSYM    DATA     BIT       P25
      00000090H.6 SFRSYM    DATA     BIT       P16
      00000080H.7 SFRSYM    DATA     BIT       P07
      000000B8H.2 SFRSYM    DATA     BIT       IPINT1
      000000A0H.6 SFRSYM    DATA     BIT       P26
LX51 LINKER/LOCATER V4.66.87.0                                                        12/09/2024  11:33:43  PAGE 67


      00000090H.7 SFRSYM    DATA     BIT       P17
      0000009DH   SFRSYM    DATA     BYTE      SSCON0
      000000A0H.7 SFRSYM    DATA     BIT       P27
      0000009EH   SFRSYM    DATA     BYTE      SSCON1
      00000095H   SFRSYM    DATA     BYTE      SSCON2
      000000F6H   SFRSYM    DATA     BYTE      IAPCTL
      000000A9H   SFRSYM    DATA     BYTE      IE1
      000000F0H   SFRSYM    DATA     BYTE      B
      00000097H   SFRSYM    DATA     BYTE      IOHCON
      000000F1H   SFRSYM    DATA     BYTE      IAPKEY
      000000CEH   SFRSYM    DATA     BYTE      BTMCON
      000000D1H   SFRSYM    DATA     BYTE      PWMCFG
      000000E0H   SFRSYM    DATA     BYTE      ACC
      000000A8H.1 SFRSYM    DATA     BIT       ET0
      00000088H.5 SFRSYM    DATA     BIT       TF0
      000000A8H.3 SFRSYM    DATA     BIT       ET1
      000000ABH   SFRSYM    DATA     BYTE      ADCCFG0
      000000B9H   SFRSYM    DATA     BYTE      IP1
      00000088H.7 SFRSYM    DATA     BIT       TF1
      000000A8H.5 SFRSYM    DATA     BIT       ET2
      000000ACH   SFRSYM    DATA     BYTE      ADCCFG1
      00000098H.2 SFRSYM    DATA     BIT       RB8
      000000C8H.7 SFRSYM    DATA     BIT       TF2
      000000AAH   SFRSYM    DATA     BYTE      ADCCFG2
      0000008CH   SFRSYM    DATA     BYTE      TH0
      0000008DH   SFRSYM    DATA     BYTE      TH1
      00000098H.3 SFRSYM    DATA     BIT       TB8
      000000CDH   SFRSYM    DATA     BYTE      TH2
      000000D0H.0 SFRSYM    DATA     BIT       P
      00000098H.7 SFRSYM    DATA     BIT       SM0
      0000008AH   SFRSYM    DATA     BYTE      TL0
      00000098H.6 SFRSYM    DATA     BIT       SM1
      000000CFH   SFRSYM    DATA     BYTE      WDTCON
      0000008BH   SFRSYM    DATA     BYTE      TL1
      00000098H.5 SFRSYM    DATA     BIT       SM2
      000000CCH   SFRSYM    DATA     BYTE      TL2
      000000D0H.3 SFRSYM    DATA     BIT       RS0
      00000088H.4 SFRSYM    DATA     BIT       TR0
      000000D0H.4 SFRSYM    DATA     BIT       RS1
      000000D2H   SFRSYM    DATA     BYTE      PWMCON
      00000088H.6 SFRSYM    DATA     BIT       TR1
      000000B8H.4 SFRSYM    DATA     BIT       IPUART
      000000C8H.2 SFRSYM    DATA     BIT       TR2
      000000D3H   SFRSYM    DATA     BYTE      PWMPRD
      00000083H   SFRSYM    DATA     BYTE      DPH
      00000082H   SFRSYM    DATA     BYTE      DPL
      000000A8H.0 SFRSYM    DATA     BIT       EINT0
      0000009AH   SFRSYM    DATA     BYTE      P0CON
      000000A8H.2 SFRSYM    DATA     BIT       EINT1
      000000B8H.6 SFRSYM    DATA     BIT       IPADC
      000000BAH   SFRSYM    DATA     BYTE      INT0F
      00000091H   SFRSYM    DATA     BYTE      P1CON
      000000C8H.3 SFRSYM    DATA     BIT       EXEN2
      000000BCH   SFRSYM    DATA     BYTE      INT1F
      000000A1H   SFRSYM    DATA     BYTE      P2CON
      000000C6H   SFRSYM    DATA     BYTE      INT2F
      00000098H.4 SFRSYM    DATA     BIT       REN
      000000D9H   SFRSYM    DATA     BYTE      P5CON
      000000AFH   SFRSYM    DATA     BYTE      ADCVH
      000000C9H   SFRSYM    DATA     BYTE      T2MOD
      000000C8H   SFRSYM    DATA     BYTE      T2CON
      000000AEH   SFRSYM    DATA     BYTE      ADCVL
      000000F7H   SFRSYM    DATA     BYTE      EXADH
      000000BBH   SFRSYM    DATA     BYTE      INT0R
      000000BDH   SFRSYM    DATA     BYTE      INT1R
LX51 LINKER/LOCATER V4.66.87.0                                                        12/09/2024  11:33:43  PAGE 68


      000000C7H   SFRSYM    DATA     BYTE      INT2R
      000000D0H.5 SFRSYM    DATA     BIT       F0
      000000D0H.1 SFRSYM    DATA     BIT       F1
      000000D0H   SFRSYM    DATA     BYTE      PSW

      0100202BH   BLOCK     CODE     ---       LVL=0
      0100202BH   LINE      CODE     ---       #6
      0100202BH   LINE      CODE     ---       #7
      0100202BH   LINE      CODE     ---       #8
      0100202EH   LINE      CODE     ---       #9
      01002031H   LINE      CODE     ---       #10
      01002033H   LINE      CODE     ---       #12
      ---         BLOCKEND  ---      ---       LVL=0

      01001D07H   BLOCK     CODE     ---       LVL=0
      01001D07H   LINE      CODE     ---       #14
      01001D07H   LINE      CODE     ---       #15
      01001D07H   LINE      CODE     ---       #16
      01001D0AH   LINE      CODE     ---       #17
      01001D12H   LINE      CODE     ---       #18
      01001D25H   LINE      CODE     ---       #19
      01001D25H   LINE      CODE     ---       #20
      01001D27H   LINE      CODE     ---       #21
      01001D37H   LINE      CODE     ---       #22
      01001D39H   LINE      CODE     ---       #23
      01001D3BH   LINE      CODE     ---       #24
      01001D3EH   LINE      CODE     ---       #25
      01001D41H   LINE      CODE     ---       #27
      01001D43H   LINE      CODE     ---       #29
      ---         BLOCKEND  ---      ---       LVL=0

      01002034H   BLOCK     CODE     ---       LVL=0
      01002034H   LINE      CODE     ---       #31
      01002034H   LINE      CODE     ---       #32
      01002034H   LINE      CODE     ---       #34
      01002037H   LINE      CODE     ---       #35
      0100203AH   LINE      CODE     ---       #37
      0100203CH   LINE      CODE     ---       #39
      ---         BLOCKEND  ---      ---       LVL=0

      0100203DH   BLOCK     CODE     ---       LVL=0
      0100203DH   LINE      CODE     ---       #41
      0100203DH   LINE      CODE     ---       #42
      0100203DH   LINE      CODE     ---       #43
      01002040H   LINE      CODE     ---       #44
      01002043H   LINE      CODE     ---       #45
      ---         BLOCKEND  ---      ---       LVL=0

      ---         MODULE    ---      ---       ?C_INIT
      010014C2H   PUBLIC    CODE     ---       ?C_START

      ---         MODULE    ---      ---       ?C?CLDOPTR
      0100005EH   PUBLIC    CODE     ---       ?C?CLDOPTR

      ---         MODULE    ---      ---       ?C?CSTPTR
      0100008BH   PUBLIC    CODE     ---       ?C?CSTPTR

      ---         MODULE    ---      ---       ?C?CSTOPTR
      0100009DH   PUBLIC    CODE     ---       ?C?CSTOPTR

      ---         MODULE    ---      ---       ?C?IMUL
      010000BFH   PUBLIC    CODE     ---       ?C?IMUL

      ---         MODULE    ---      ---       ?C?UIDIV
      010000D1H   PUBLIC    CODE     ---       ?C?UIDIV
LX51 LINKER/LOCATER V4.66.87.0                                                        12/09/2024  11:33:43  PAGE 69



      ---         MODULE    ---      ---       ?C?SIDIV
      01000126H   PUBLIC    CODE     ---       ?C?SIDIV

      ---         MODULE    ---      ---       ?C?IILDX
      0100015CH   PUBLIC    CODE     ---       ?C?IILDX

      ---         MODULE    ---      ---       ?C?ILDIX
      01000172H   PUBLIC    CODE     ---       ?C?ILDIX

      ---         MODULE    ---      ---       ?C?ILDPTR
      01000188H   PUBLIC    CODE     ---       ?C?ILDPTR

      ---         MODULE    ---      ---       ?C?ILDOPTR
      010001B3H   PUBLIC    CODE     ---       ?C?ILDOPTR

      ---         MODULE    ---      ---       ?C?IILDOPTR
      010001EBH   PUBLIC    CODE     ---       ?C?IILDOPTR

      ---         MODULE    ---      ---       ?C?ISTPTR
      01000238H   PUBLIC    CODE     ---       ?C?ISTPTR

      ---         MODULE    ---      ---       ?C?ISTOPTR
      01000257H   PUBLIC    CODE     ---       ?C?ISTOPTR

      ---         MODULE    ---      ---       ?C?LMUL
      01000284H   PUBLIC    CODE     ---       ?C?LMUL

      ---         MODULE    ---      ---       ?C?ULDIV
      0100030FH   PUBLIC    CODE     ---       ?C?ULDIV

      ---         MODULE    ---      ---       ?C?LNOT
      010003A1H   PUBLIC    CODE     ---       ?C?LNOT

      ---         MODULE    ---      ---       ?C?ULCMP
      010003AEH   PUBLIC    CODE     ---       ?C?ULCMP

      ---         MODULE    ---      ---       ?C?ULSHR
      010003BFH   PUBLIC    CODE     ---       ?C?ULSHR

      ---         MODULE    ---      ---       ?C?LSHL
      010003D2H   PUBLIC    CODE     ---       ?C?LSHL

      ---         MODULE    ---      ---       ?C?LSTXDATA
      010003E5H   PUBLIC    CODE     ---       ?C?LSTXDATA

      ---         MODULE    ---      ---       ?C?LSTKXDATA
      010003F1H   PUBLIC    CODE     ---       ?C?LSTKXDATA

      ---         MODULE    ---      ---       ?C?OFFXADD
      01000422H   PUBLIC    CODE     ---       ?C?OFFXADD

      ---         MODULE    ---      ---       ?C?PLDOPTR
      0100042EH   PUBLIC    CODE     ---       ?C?PLDOPTR

      ---         MODULE    ---      ---       ?C?PSTOPTR
      0100045EH   PUBLIC    CODE     ---       ?C?PSTOPTR

      ---         MODULE    ---      ---       ?C?CCASE
      010004B7H   PUBLIC    CODE     ---       ?C?CCASE

      ---         MODULE    ---      ---       FREE

      ---         MODULE    ---      ---       ?C?PLDIDATA
      010004DDH   PUBLIC    CODE     ---       ?C?PLDIDATA
LX51 LINKER/LOCATER V4.66.87.0                                                        12/09/2024  11:33:43  PAGE 70



      ---         MODULE    ---      ---       ?C?PSTIDATA
      010004E6H   PUBLIC    CODE     ---       ?C?PSTIDATA

      ---         MODULE    ---      ---       ?C?PLDXDATA
      010004EFH   PUBLIC    CODE     ---       ?C?PLDXDATA

      ---         MODULE    ---      ---       ?C?PSTXDATA
      010004F8H   PUBLIC    CODE     ---       ?C?PSTXDATA

      ---         MODULE    ---      ---       ?C?PLDPDATA
      01000501H   PUBLIC    CODE     ---       ?C?PLDPDATA

      ---         MODULE    ---      ---       ?C?PSTPDATA
      0100050AH   PUBLIC    CODE     ---       ?C?PSTPDATA

      ---         MODULE    ---      ---       ?C?PLDCODE
      01000513H   PUBLIC    CODE     ---       ?C?PLDCODE

      ---         MODULE    ---      ---       INIT_MEM
      02000095H   PUBLIC    XDATA    ---       __MEM_AVAIL__

Program Size: data=36.2 xdata=264 const=45 code=8237
LX51 RUN COMPLETE.  0 WARNING(S),  0 ERROR(S)
